BL51 BANKED LINKER/LOCATER V6.22                                                        06/08/2016  14:58:03  PAGE 1


BL51 BANKED LINKER/LOCATER V6.22, INVOKED BY:
C:\KEIL\C51\BIN\BL51.EXE STARTUP.obj, main.obj, BLE.obj, delay.obj, indy.obj, stc15_oled.obj, stc15_adc.obj, stc15_uart.
>> obj, stc15_flash.obj, stc15_pwm.obj, stc15_time.obj, stc15_spi.obj, stc15_int.obj, beep.obj, stc15_clk.obj, power.obj
>> , keyScan.obj, oled_data.obj TO lifeRf RAMSIZE (256)


MEMORY MODEL: LARGE WITH FLOATING POINT ARITHMETIC


INPUT MODULES INCLUDED:
  STARTUP.obj (?C_STARTUP)
  main.obj (MAIN)
  BLE.obj (BLE)
  delay.obj (DELAY)
  indy.obj (INDY)
  stc15_oled.obj (STC15_OLED)
  stc15_adc.obj (STC15_ADC)
  stc15_uart.obj (STC15_UART)
  stc15_flash.obj (STC15_FLASH)
  stc15_pwm.obj (STC15_PWM)
  stc15_time.obj (STC15_TIME)
  stc15_spi.obj (STC15_SPI)
  stc15_int.obj (STC15_INT)
  beep.obj (BEEP)
  stc15_clk.obj (STC15_CLK)
  power.obj (POWER)
  keyScan.obj (KEYSCAN)
  oled_data.obj (OLED_DATA)
  C:\KEIL\C51\LIB\C51FPL.LIB (?C?FPADD)
  C:\KEIL\C51\LIB\C51FPL.LIB (?C?FPMUL)
  C:\KEIL\C51\LIB\C51FPL.LIB (?C?FPDIV)
  C:\KEIL\C51\LIB\C51FPL.LIB (?C?FPCMP)
  C:\KEIL\C51\LIB\C51FPL.LIB (?C?FCAST)
  C:\KEIL\C51\LIB\C51FPL.LIB (?C?CASTF)
  C:\KEIL\C51\LIB\C51FPL.LIB (?C?FPGETOPN)
  C:\KEIL\C51\LIB\C51L.LIB (?C_INIT)
  C:\KEIL\C51\LIB\C51L.LIB (?C?COPY)
  C:\KEIL\C51\LIB\C51L.LIB (?C?CLDPTR)
  C:\KEIL\C51\LIB\C51L.LIB (?C?CLDOPTR)
  C:\KEIL\C51\LIB\C51L.LIB (?C?IMUL)
  C:\KEIL\C51\LIB\C51L.LIB (?C?UIDIV)
  C:\KEIL\C51\LIB\C51L.LIB (?C?IILDX)
  C:\KEIL\C51\LIB\C51L.LIB (?C?ILDIX)
  C:\KEIL\C51\LIB\C51L.LIB (?C?LMUL)
  C:\KEIL\C51\LIB\C51L.LIB (?C?SLDIV)
  C:\KEIL\C51\LIB\C51L.LIB (?C?LNEG)
  C:\KEIL\C51\LIB\C51L.LIB (?C?SLSHR)
  C:\KEIL\C51\LIB\C51L.LIB (?C?LSTXDATA)
  C:\KEIL\C51\LIB\C51L.LIB (?C?LSTKXDATA)
  C:\KEIL\C51\LIB\C51L.LIB (?C?CCASE)
  C:\KEIL\C51\LIB\C51L.LIB (?C?ULDIV)


LINK MAP OF MODULE:  lifeRf (?C_STARTUP)


            TYPE    BASE      LENGTH    RELOCATION   SEGMENT NAME
            -----------------------------------------------------
BL51 BANKED LINKER/LOCATER V6.22                                                      06/08/2016  14:58:03  PAGE 2



            * * * * * * *   D A T A   M E M O R Y   * * * * * * *
            REG     0000H     0008H     ABSOLUTE     "REG BANK 0"
            REG     0008H     0008H     ABSOLUTE     "REG BANK 1"
                    0010H     0010H                  *** GAP ***
            BIT     0020H.0   0000H.4   UNIT         ?BI?STC15_UART
            BIT     0020H.4   0000H.4   UNIT         ?BI?STC15_FLASH
            BIT     0021H.0   0000H.2   UNIT         ?BI?PROCESS_PACKETS?INDY
                    0021H.2   0000H.6                *** GAP ***
            IDATA   0022H     0020H     UNIT         ?ID?STC15_FLASH
            IDATA   0042H     0001H     UNIT         ?STACK

            * * * * * * *  X D A T A   M E M O R Y  * * * * * * *
            XDATA   0000H     039EH     UNIT         ?XD?STC15_UART
            XDATA   039EH     0158H     UNIT         ?XD?_INDEX_R_CHECK?INDY
            XDATA   04F6H     0022H     UNIT         ?XD?INDY
            XDATA   0518H     0021H     UNIT         ?XD?UART2_SENDMES?INDY
            XDATA   0539H     001EH     UNIT         ?XD?TEMPSCAN?POWER
            XDATA   0557H     001CH     UNIT         _XDATA_GROUP_
            XDATA   0573H     0015H     UNIT         ?XD?PROCESS_PACKETS?INDY
            XDATA   0588H     000FH     UNIT         ?XD?_WRITE_FLASH_WITH_PROTECT_IN_ONE_SECTOR?STC15_FLASH
            XDATA   0597H     000BH     UNIT         ?XD?_SEQUENTIAL_WRITE_FLASH_IN_ONE_SECTOR?STC15_FLASH
            XDATA   05A2H     000BH     UNIT         ?XD?BATTERYSCAN?POWER
            XDATA   05ADH     0008H     UNIT         ?XD?STC15_FLASH
            XDATA   05B5H     0007H     UNIT         ?XD?_OLEDFLUSH?STC15_OLED
            XDATA   05BCH     0006H     UNIT         ?XD?_WRITE_MAC_REGISTER?INDY
            XDATA   05C2H     0006H     UNIT         ?XD?_OLEDWRITEBUFBYHEX57?STC15_OLED
            XDATA   05C8H     0006H     UNIT         ?XD?_OLEDWRITEMESSAGE57?STC15_OLED
            XDATA   05CEH     0006H     UNIT         ?XD?_DTOA1024?STC15_ADC
            XDATA   05D4H     0005H     UNIT         ?XD?MAIN
            XDATA   05D9H     0005H     UNIT         ?XD?_OLEDWRITEMESSAGE?STC15_OLED
            XDATA   05DEH     0005H     UNIT         ?XD?_OLEDWRITEBUFBYHEX?STC15_OLED
            XDATA   05E3H     0005H     UNIT         ?XD?_DTOA256?STC15_ADC
            XDATA   05E8H     0005H     UNIT         ?XD?_GETPWMBRT?STC15_PWM
            XDATA   05EDH     0005H     UNIT         ?XD?STC15_PWM
            XDATA   05F2H     0005H     UNIT         ?XD?GETBATTERYPERCENT?POWER
            XDATA   05F7H     0004H     UNIT         ?XD?STC15_INT
            XDATA   05FBH     0003H     UNIT         ?XD?_BLE_SET_BAUD?BLE
            XDATA   05FEH     0003H     UNIT         ?XD?_SENDSTRING?STC15_UART
            XDATA   0601H     0003H     UNIT         ?XD?_SENDSTRING2?STC15_UART
            XDATA   0604H     0003H     UNIT         ?XD?_SENDSTRING3?STC15_UART
            XDATA   0607H     0003H     UNIT         ?XD?_SENDSTRING4?STC15_UART
            XDATA   060AH     0003H     UNIT         ?XD?KEYSCAN?KEYSCAN
            XDATA   060DH     0003H     UNIT         ?XD?KEYSCANTEST?KEYSCAN
            XDATA   0610H     0002H     UNIT         ?XD?_READ_MAC_REGISTER?INDY
            XDATA   0612H     0002H     UNIT         ?XD?INDY_READ_SENSORCODE?INDY
            XDATA   0614H     0002H     UNIT         ?XD?INDY_READRSSI?INDY
            XDATA   0616H     0002H     UNIT         ?XD?INDY_READTEMP?INDY
            XDATA   0618H     0002H     UNIT         ?XD?_OLEDWRITEWORDBYHEX57?STC15_OLED
            XDATA   061AH     0002H     UNIT         ?XD?_OLEDWRITEASSIC57?STC15_OLED
            XDATA   061CH     0002H     UNIT         ?XD?_GETPWM2?STC15_PWM
            XDATA   061EH     0002H     UNIT         ?XD?_TIMER0INIT?STC15_TIME
            XDATA   0620H     0002H     UNIT         ?XD?_PAGESCAN?KEYSCAN
            XDATA   0622H     0001H     UNIT         ?XD?_OLEDBRTADJUST?STC15_PWM
            XDATA   0623H     0001H     UNIT         ?XD?POWER
            XDATA   0624H     0001H     UNIT         ?XD?KEYSCAN

BL51 BANKED LINKER/LOCATER V6.22                                                      06/08/2016  14:58:03  PAGE 3


            * * * * * * *   C O D E   M E M O R Y   * * * * * * *
            CODE    0000H     0003H     ABSOLUTE     
            CODE    0003H     0003H     ABSOLUTE     
            CODE    0006H     0005H     UNIT         ?PR?DELAY3US?DELAY
            CODE    000BH     0003H     ABSOLUTE     
            CODE    000EH     0004H     UNIT         ?PR?LVD_ISR?STC15_INT
            CODE    0012H     0001H     UNIT         ?PR?EXINT0?STC15_INT
            CODE    0013H     0003H     ABSOLUTE     
            CODE    0016H     000DH     UNIT         ?PR?DELAY999MS?DELAY
            CODE    0023H     0003H     ABSOLUTE     
            CODE    0026H     0001H     UNIT         ?PR?EXINT1?STC15_INT
            CODE    0027H     0001H     UNIT         ?PR?EXINT2?STC15_INT
            CODE    0028H     0001H     UNIT         ?PR?EXINT3?STC15_INT
            CODE    0029H     0001H     UNIT         ?PR?EXINT4?STC15_INT
                    002AH     0001H                  *** GAP ***
            CODE    002BH     0003H     ABSOLUTE     
                    002EH     0005H                  *** GAP ***
            CODE    0033H     0003H     ABSOLUTE     
            CODE    0036H     000DH     UNIT         ?PR?IAPIDLE?STC15_FLASH
            CODE    0043H     0003H     ABSOLUTE     
                    0046H     0005H                  *** GAP ***
            CODE    004BH     0003H     ABSOLUTE     
                    004EH     0005H                  *** GAP ***
            CODE    0053H     0003H     ABSOLUTE     
                    0056H     0005H                  *** GAP ***
            CODE    005BH     0003H     ABSOLUTE     
            CODE    005EH     0024H     UNIT         ?PR?_DTOA1024?STC15_ADC
                    0082H     0001H                  *** GAP ***
            CODE    0083H     0003H     ABSOLUTE     
                    0086H     0005H                  *** GAP ***
            CODE    008BH     0003H     ABSOLUTE     
                    008EH     0005H                  *** GAP ***
            CODE    0093H     0003H     ABSOLUTE     
                    0096H     0005H                  *** GAP ***
            CODE    009BH     0003H     ABSOLUTE     
            CODE    009EH     229FH     UNIT         ?PR?_INDEX_SEND?INDY
            CODE    233DH     0D14H     UNIT         ?PR?_INDEX_R_CHECK?INDY
            CODE    3051H     08B4H     UNIT         ?CO?OLED_DATA
            CODE    3905H     0747H     UNIT         ?C?LIB_CODE
            CODE    404CH     03B5H     UNIT         ?PR?_PAGESCAN?KEYSCAN
            CODE    4401H     030BH     UNIT         ?PR?_OLEDWRITEMESSAGE?STC15_OLED
            CODE    470CH     02E9H     UNIT         ?CO?KEYSCAN
            CODE    49F5H     02D5H     UNIT         ?PR?PROCESS_PACKETS?INDY
            CODE    4CCAH     019DH     UNIT         ?PR?KEYSCANTEST?KEYSCAN
            CODE    4E67H     0186H     UNIT         ?PR?_WRITE_FLASH_WITH_PROTECT_IN_ONE_SECTOR?STC15_FLASH
            CODE    4FEDH     014DH     UNIT         ?CO?INDY
            CODE    513AH     012CH     UNIT         ?PR?TEMPSCAN?POWER
            CODE    5266H     0116H     UNIT         ?PR?_OLEDWRITEWORDBYHEX57?STC15_OLED
            CODE    537CH     0103H     UNIT         ?PR?UART2_SENDMES?INDY
            CODE    547FH     00F4H     UNIT         ?PR?_OLEDWRITEWORDBYHEX?STC15_OLED
            CODE    5573H     00E8H     UNIT         ?PR?_SEQUENTIAL_WRITE_FLASH_IN_ONE_SECTOR?STC15_FLASH
            CODE    565BH     00DEH     UNIT         ?PR?_GETPWMBZ?STC15_PWM
            CODE    5739H     00DEH     UNIT         ?PR?BATTERYSCAN?POWER
            CODE    5817H     00DDH     UNIT         ?PR?_OLEDWRITEBUFBYHEX57?STC15_OLED
            CODE    58F4H     00BEH     UNIT         ?PR?_OLEDWRITEMESSAGE57?STC15_OLED
            CODE    59B2H     00B1H     UNIT         ?PR?_OLEDBRTADJUST?STC15_PWM
            CODE    5A63H     00B0H     UNIT         ?PR?ADC_ISR_KEY?STC15_ADC
BL51 BANKED LINKER/LOCATER V6.22                                                      06/08/2016  14:58:03  PAGE 4


            CODE    5B13H     00ADH     UNIT         ?PR?KEYSCAN?KEYSCAN
            CODE    5BC0H     00ABH     UNIT         ?PR?T3INT?STC15_PWM
            CODE    5C6BH     00A0H     UNIT         ?PR?_BLE_SET_BAUD?BLE
            CODE    5D0BH     0096H     UNIT         ?PR?_OLEDFLUSHPAGE?STC15_OLED
            CODE    5DA1H     0091H     UNIT         ?PR?_OLEDASSICFORSTATE?STC15_OLED
            CODE    5E32H     008CH     UNIT         ?C_C51STARTUP
            CODE    5EBEH     008CH     UNIT         ?PR?_OLEDWRITEBUFBYHEX?STC15_OLED
            CODE    5F4AH     008AH     UNIT         ?PR?_GETPWMBRT?STC15_PWM
            CODE    5FD4H     0085H     UNIT         ?PR?OLEDPOWERUP?STC15_OLED
            CODE    6059H     007DH     UNIT         ?PR?_OLEDWRITEASSIC57?STC15_OLED
            CODE    60D6H     006DH     UNIT         ?PR?_OLEDFLUSH?STC15_OLED
            CODE    6143H     0068H     UNIT         ?CO?BLE
            CODE    61ABH     0066H     UNIT         ?PR?MAIN?MAIN
            CODE    6211H     0060H     UNIT         ?PR?GETBATTERYPERCENT?POWER
            CODE    6271H     005CH     UNIT         ?PR?_WRITE_MAC_REGISTER?INDY
            CODE    62CDH     005BH     UNIT         ?PR?CLEAR_UART2_MES?INDY
            CODE    6328H     005BH     UNIT         ?PR?INDY_READTEMP?INDY
            CODE    6383H     0055H     UNIT         ?PR?T0INT?STC15_INT
            CODE    63D8H     0053H     UNIT         ?PR?_TIMER0INIT?STC15_TIME
            CODE    642BH     0050H     UNIT         ?PR?BLE_INQUIRE_BAUD?BLE
            CODE    647BH     004EH     UNIT         ?PR?INDY_READRSSI?INDY
            CODE    64C9H     004BH     UNIT         ?PR?_GETPWM4?STC15_PWM
            CODE    6514H     004AH     UNIT         ?PR?_GETPWM5?STC15_PWM
            CODE    655EH     0049H     UNIT         ?PR?FRESHSTATELINE?STC15_INT
            CODE    65A7H     0047H     UNIT         ?PR?INDY_READ_SENSORCODE?INDY
            CODE    65EEH     0044H     UNIT         ?C?LDIV
            CODE    6632H     0043H     UNIT         ?PR?UART2_RECV_PROC?INDY
            CODE    6675H     003FH     UNIT         ?PR?_OLEDBATTERYPOWER?OLED_DATA
            CODE    66B4H     003DH     UNIT         ?PR?UART_ISR?STC15_UART
            CODE    66F1H     003AH     UNIT         ?PR?UART2?STC15_UART
            CODE    672BH     003AH     UNIT         ?PR?UART4?STC15_UART
            CODE    6765H     0038H     UNIT         ?CO?POWER
            CODE    679DH     0037H     UNIT         ?PR?_READ_MAC_REGISTER?INDY
            CODE    67D4H     0036H     UNIT         ?PR?GETPWM?STC15_PWM
            CODE    680AH     0033H     UNIT         ?PR?_SENDSTRING?STC15_UART
            CODE    683DH     0033H     UNIT         ?PR?_SENDSTRING2?STC15_UART
            CODE    6870H     0033H     UNIT         ?PR?_SENDSTRING3?STC15_UART
            CODE    68A3H     0033H     UNIT         ?PR?_SENDSTRING4?STC15_UART
            CODE    68D6H     0031H     UNIT         ?PR?_WRBYTE?STC15_OLED
            CODE    6907H     0030H     UNIT         ?C_INITSEG
            CODE    6937H     0030H     UNIT         ?PR?OLEDCLEAR?STC15_OLED
            CODE    6967H     002FH     UNIT         ?PR?_SETSTARTCOLUMN?STC15_OLED
            CODE    6996H     002FH     UNIT         ?PR?UARTINIT?STC15_UART
            CODE    69C5H     002BH     UNIT         ?PR?_CLEARPAGECOL?STC15_OLED
            CODE    69F0H     002BH     UNIT         ?PR?CHECKCHARGING?POWER
            CODE    6A1BH     002AH     UNIT         ?PR?_READ_ADC1024?STC15_ADC
            CODE    6A45H     0024H     UNIT         ?PR?BATTERYINIT?POWER
            CODE    6A69H     0024H     UNIT         ?PR?_OLEDBTCONNECTSTATE?OLED_DATA
            CODE    6A8DH     0024H     UNIT         ?PR?_OLEDBATTERYSTATE?OLED_DATA
            CODE    6AB1H     0024H     UNIT         ?PR?_OLEDCHARGINGSTATE?OLED_DATA
            CODE    6AD5H     0022H     UNIT         ?PR?_DTOA256?STC15_ADC
            CODE    6AF7H     0020H     UNIT         ?PR?_SETSTARTPAGE?STC15_OLED
            CODE    6B17H     001FH     UNIT         ?PR?_ADCINTINIT?STC15_ADC
            CODE    6B36H     001FH     UNIT         ?PR?_GETPWM2?STC15_PWM
            CODE    6B55H     001EH     UNIT         ?PR?UART2INIT?STC15_UART
            CODE    6B73H     001BH     UNIT         ?PR?UART3INIT?STC15_UART
            CODE    6B8EH     001BH     UNIT         ?PR?UART4INIT?STC15_UART
BL51 BANKED LINKER/LOCATER V6.22                                                      06/08/2016  14:58:03  PAGE 5


            CODE    6BA9H     001AH     UNIT         ?PR?UART3?STC15_UART
            CODE    6BC3H     0019H     UNIT         ?PR?_IAPPROGRAMBYTE?STC15_FLASH
            CODE    6BDCH     0018H     UNIT         ?PR?_IAPREADBYTE?STC15_FLASH
            CODE    6BF4H     0017H     UNIT         ?PR?_READ_ADC256?STC15_ADC
            CODE    6C0BH     0017H     UNIT         ?PR?_DELAY?STC15_ADC
            CODE    6C22H     0017H     UNIT         ?PR?T0INTINIT?STC15_INT
            CODE    6C39H     0016H     UNIT         ?PR?CLEAR_REC_DATA?STC15_UART
            CODE    6C4FH     0015H     UNIT         ?PR?_WR1BDATA?STC15_OLED
            CODE    6C64H     0015H     UNIT         ?PR?_IAPERASESECTOR?STC15_FLASH
            CODE    6C79H     0013H     UNIT         ?PR?BLE_INIT?BLE
            CODE    6C8CH     0012H     UNIT         ?PR?INITSPI?STC15_SPI
            CODE    6C9EH     0012H     UNIT         ?PR?T3INTINIT?STC15_INT
            CODE    6CB0H     0012H     UNIT         ?PR?CLICK10MSBZ?BEEP
            CODE    6CC2H     0012H     UNIT         ?PR?BEEP200MSBZ?BEEP
            CODE    6CD4H     0012H     UNIT         ?PR?BTLINK3SBZ?BEEP
            CODE    6CE6H     0012H     UNIT         ?PR?LOWBATTERY50MSBZ?BEEP
            CODE    6CF8H     0012H     UNIT         ?PR?OLEDFLUSHBASESTATE?OLED_DATA
            CODE    6D0AH     0011H     UNIT         ?PR?INITOLED?STC15_OLED
            CODE    6D1BH     0011H     UNIT         ?PR?OLEDEXITINGSLEEPMODE?STC15_OLED
            CODE    6D2CH     0010H     UNIT         ?PR?_UDELAY?STC15_OLED
            CODE    6D3CH     0010H     UNIT         ?PR?OLEDPOWERDOWN?STC15_OLED
            CODE    6D4CH     0010H     UNIT         ?PR?CLEAR_UART2_DATA?STC15_UART
            CODE    6D5CH     000FH     UNIT         ?PR?DELAY20MS?DELAY
            CODE    6D6BH     000FH     UNIT         ?PR?DELAY150MS?DELAY
            CODE    6D7AH     000FH     UNIT         ?PR?DELAY10MS?DELAY
            CODE    6D89H     000FH     UNIT         ?PR?DELAY500MS?DELAY
            CODE    6D98H     000FH     UNIT         ?PR?DELAY3000MS?DELAY
            CODE    6DA7H     000FH     UNIT         ?PR?DELAY200MS?DELAY
            CODE    6DB6H     000FH     UNIT         ?PR?DELAY50MS?DELAY
            CODE    6DC5H     000FH     UNIT         ?PR?DELAY100MS?DELAY
            CODE    6DD4H     000CH     UNIT         ?PR?_WR1BCMD?STC15_OLED
            CODE    6DE0H     000CH     UNIT         ?PR?_WEAKUPDOWNMODE?STC15_CLK
            CODE    6DECH     000BH     UNIT         ?PR?OLEDENTERINGSLEEPMODE?STC15_OLED
            CODE    6DF7H     0009H     UNIT         ?PR?_SENDDATA?STC15_UART
            CODE    6E00H     0009H     UNIT         ?PR?_SENDDATA2?STC15_UART
            CODE    6E09H     0009H     UNIT         ?PR?_SENDDATA3?STC15_UART
            CODE    6E12H     0009H     UNIT         ?PR?_SENDDATA4?STC15_UART
            CODE    6E1BH     0009H     UNIT         ?PR?INT0INIT?STC15_INT
            CODE    6E24H     0009H     UNIT         ?PR?INT1INIT?STC15_INT
            CODE    6E2DH     0009H     UNIT         ?PR?_WARNINGBZ?BEEP
            CODE    6E36H     0008H     UNIT         ?PR?LVDINTINIT?STC15_INT
            CODE    6E3EH     0006H     UNIT         ?PR?SPI_ISR?STC15_SPI
            CODE    6E44H     0006H     UNIT         ?PR?INT2INIT?STC15_INT
            CODE    6E4AH     0006H     UNIT         ?PR?INT3INIT?STC15_INT
            CODE    6E50H     0006H     UNIT         ?PR?INT4INIT?STC15_INT



OVERLAY MAP OF MODULE:   lifeRf (?C_STARTUP)


SEGMENT                                            XDATA_GROUP
  +--> CALLED SEGMENT                            START    LENGTH
----------------------------------------------------------------
?C_C51STARTUP                                    -----    -----
  +--> ?PR?MAIN?MAIN
  +--> ?C_INITSEG
BL51 BANKED LINKER/LOCATER V6.22                                                      06/08/2016  14:58:03  PAGE 6



?PR?MAIN?MAIN                                    0557H    000CH
  +--> ?PR?BEEP200MSBZ?BEEP
  +--> ?PR?UARTINIT?STC15_UART
  +--> ?PR?UART2INIT?STC15_UART
  +--> ?PR?UART3INIT?STC15_UART
  +--> ?PR?UART4INIT?STC15_UART
  +--> ?PR?BATTERYINIT?POWER
  +--> ?PR?INITOLED?STC15_OLED
  +--> ?PR?OLEDPOWERUP?STC15_OLED
  +--> ?PR?BLE_INIT?BLE
  +--> ?PR?OLEDFLUSHBASESTATE?OLED_DATA
  +--> ?PR?_OLEDBATTERYPOWER?OLED_DATA
  +--> ?PR?_OLEDBATTERYSTATE?OLED_DATA
  +--> ?PR?_OLEDBTCONNECTSTATE?OLED_DATA
  +--> ?PR?_OLEDCHARGINGSTATE?OLED_DATA
  +--> ?PR?_OLEDWRITEWORDBYHEX?STC15_OLED

?PR?BEEP200MSBZ?BEEP                             -----    -----
  +--> ?PR?_GETPWMBZ?STC15_PWM
  +--> ?PR?DELAY200MS?DELAY

?PR?_GETPWMBZ?STC15_PWM                          0563H    0006H

?PR?BATTERYINIT?POWER                            -----    -----
  +--> ?PR?DELAY100MS?DELAY

?PR?OLEDPOWERUP?STC15_OLED                       0563H    0002H
  +--> ?PR?_WR1BCMD?STC15_OLED
  +--> ?PR?OLEDCLEAR?STC15_OLED

?PR?_WR1BCMD?STC15_OLED                          -----    -----
  +--> ?PR?_WRBYTE?STC15_OLED

?PR?_WRBYTE?STC15_OLED                           -----    -----
  +--> ?PR?_UDELAY?STC15_OLED

?PR?OLEDCLEAR?STC15_OLED                         0565H    0001H
  +--> ?PR?_SETSTARTPAGE?STC15_OLED
  +--> ?PR?_SETSTARTCOLUMN?STC15_OLED
  +--> ?PR?_WR1BDATA?STC15_OLED

?PR?_SETSTARTPAGE?STC15_OLED                     -----    -----
  +--> ?PR?_WR1BCMD?STC15_OLED

?PR?_SETSTARTCOLUMN?STC15_OLED                   -----    -----
  +--> ?PR?_SETSTARTPAGE?STC15_OLED
  +--> ?PR?_WR1BCMD?STC15_OLED

?PR?_WR1BDATA?STC15_OLED                         -----    -----
  +--> ?PR?_WRBYTE?STC15_OLED

?PR?OLEDFLUSHBASESTATE?OLED_DATA                 -----    -----
  +--> ?CO?OLED_DATA
  +--> ?PR?_OLEDFLUSHPAGE?STC15_OLED

?PR?_OLEDFLUSHPAGE?STC15_OLED                    0563H    0007H
BL51 BANKED LINKER/LOCATER V6.22                                                      06/08/2016  14:58:03  PAGE 7


  +--> ?PR?_SETSTARTCOLUMN?STC15_OLED
  +--> ?PR?_WR1BDATA?STC15_OLED

?PR?_OLEDBATTERYPOWER?OLED_DATA                  0563H    0001H
  +--> ?PR?_OLEDASSICFORSTATE?STC15_OLED

?PR?_OLEDASSICFORSTATE?STC15_OLED                0564H    0002H
  +--> ?PR?_SETSTARTCOLUMN?STC15_OLED
  +--> ?CO?OLED_DATA
  +--> ?PR?_WR1BDATA?STC15_OLED

?PR?_OLEDBATTERYSTATE?OLED_DATA                  -----    -----
  +--> ?CO?OLED_DATA
  +--> ?PR?_OLEDFLUSHPAGE?STC15_OLED

?PR?_OLEDBTCONNECTSTATE?OLED_DATA                -----    -----
  +--> ?CO?OLED_DATA
  +--> ?PR?_OLEDFLUSHPAGE?STC15_OLED

?PR?_OLEDCHARGINGSTATE?OLED_DATA                 -----    -----
  +--> ?CO?OLED_DATA
  +--> ?PR?_OLEDFLUSHPAGE?STC15_OLED

?PR?_OLEDWRITEWORDBYHEX?STC15_OLED               0563H    0003H
  +--> ?PR?_SETSTARTPAGE?STC15_OLED
  +--> ?PR?_SETSTARTCOLUMN?STC15_OLED
  +--> ?CO?OLED_DATA
  +--> ?PR?_WR1BDATA?STC15_OLED

*** NEW ROOT ***************************************************

?PR?ADC_ISR_KEY?STC15_ADC                        056AH    0004H
  +--> ?PR?DELAY10MS?DELAY
  +--> ?PR?_READ_ADC256?STC15_ADC

*** NEW ROOT ***************************************************

?PR?T0INT?STC15_INT                              056EH    0005H



SYMBOL TABLE OF MODULE:  lifeRf (?C_STARTUP)

  VALUE           TYPE          NAME
  ----------------------------------

  -------         MODULE        ?C_STARTUP
  C:5E32H         SEGMENT       ?C_C51STARTUP
  I:0042H         SEGMENT       ?STACK
  C:0000H         PUBLIC        ?C_STARTUP
  D:00E0H         SYMBOL        ACC
  D:00F0H         SYMBOL        B
  D:0083H         SYMBOL        DPH
  D:0082H         SYMBOL        DPL
  N:0000H         SYMBOL        IBPSTACK
  N:0100H         SYMBOL        IBPSTACKTOP
  N:0080H         SYMBOL        IDATALEN
BL51 BANKED LINKER/LOCATER V6.22                                                      06/08/2016  14:58:03  PAGE 8


  C:5E35H         SYMBOL        IDATALOOP
  N:0000H         SYMBOL        PBPSTACK
  N:0100H         SYMBOL        PBPSTACKTOP
  N:0000H         SYMBOL        PDATALEN
  N:0000H         SYMBOL        PDATASTART
  N:0000H         SYMBOL        PPAGE
  N:0000H         SYMBOL        PPAGEENABLE
  D:00A0H         SYMBOL        PPAGE_SFR
  D:0081H         SYMBOL        SP
  C:5E32H         SYMBOL        STARTUP1
  N:0000H         SYMBOL        XBPSTACK
  N:0000H         SYMBOL        XBPSTACKTOP
  N:0000H         SYMBOL        XDATALEN
  N:0000H         SYMBOL        XDATASTART
  C:0000H         LINE#         126
  C:5E32H         LINE#         133
  C:5E34H         LINE#         134
  C:5E35H         LINE#         135
  C:5E36H         LINE#         136
  C:5E38H         LINE#         185
  C:5E3BH         LINE#         196
  -------         ENDMOD        ?C_STARTUP

  -------         MODULE        MAIN
  C:0000H         SYMBOL        _ICE_DUMMY_
  D:0080H         PUBLIC        P0
  D:0090H         PUBLIC        P1
  D:00A0H         PUBLIC        P2
  D:00B0H         PUBLIC        P3
  D:00C0H         PUBLIC        P4
  D:00C8H         PUBLIC        P5
  D:00E8H         PUBLIC        P6
  D:00F8H         PUBLIC        P7
  D:00A8H         PUBLIC        IE
  D:00B8H         PUBLIC        IP
  B:00E8H.6       PUBLIC        MODE_CTL_BLE
  X:05D4H         PUBLIC        result
  D:00D8H         PUBLIC        CCON
  C:61ABH         PUBLIC        main
  D:0098H         PUBLIC        SCON
  D:0088H         PUBLIC        TCON
  D:00F8H         PUBLIC        WIRC_H
  D:00F9H         PUBLIC        WIRC_L
  D:00D0H         PUBLIC        PSW
  -------         PROC          MAIN
  -------         DO            
  X:0557H         SYMBOL        keyScanResult
  X:0558H         SYMBOL        i
  X:0559H         SYMBOL        j
  X:055AH         SYMBOL        temp
  X:055EH         SYMBOL        bat
  X:055FH         SYMBOL        fail_cnt
  X:0560H         SYMBOL        send_times
  X:0561H         SYMBOL        rec_flag
  X:0562H         SYMBOL        rec_flag_cnt
  -------         ENDDO         
  C:61ABH         LINE#         12
BL51 BANKED LINKER/LOCATER V6.22                                                      06/08/2016  14:58:03  PAGE 9


  C:61ABH         LINE#         13
  C:61ABH         LINE#         14
  C:61B0H         LINE#         15
  C:61B2H         LINE#         16
  C:61B4H         LINE#         17
  C:61BCH         LINE#         18
  C:61C1H         LINE#         21
  C:61C3H         LINE#         22
  C:61C5H         LINE#         23
  C:61C7H         LINE#         24
  C:61C9H         LINE#         26
  C:61CCH         LINE#         28
  C:61CFH         LINE#         29
  C:61D2H         LINE#         30
  C:61D5H         LINE#         31
  C:61D8H         LINE#         33
  C:61DBH         LINE#         35
  C:61DEH         LINE#         37
  C:61E1H         LINE#         39
  C:61E4H         LINE#         40
  C:61E6H         LINE#         46
  C:61E9H         LINE#         47
  C:61EEH         LINE#         48
  C:61F3H         LINE#         49
  C:61F8H         LINE#         50
  C:61FDH         LINE#         333
  C:6206H         LINE#         334
  C:620FH         LINE#         339
  C:620FH         LINE#         348
  -------         ENDPROC       MAIN
  -------         ENDMOD        MAIN

  -------         MODULE        BLE
  C:0000H         SYMBOL        _ICE_DUMMY_
  D:0080H         PUBLIC        P0
  D:0090H         PUBLIC        P1
  D:00A0H         PUBLIC        P2
  D:00B0H         PUBLIC        P3
  D:00CCH         PUBLIC        P6M0
  D:00C0H         PUBLIC        P4
  D:00CBH         PUBLIC        P6M1
  D:00C8H         PUBLIC        P5
  D:00E8H         PUBLIC        P6
  D:00F8H         PUBLIC        P7
  D:00A8H         PUBLIC        IE
  B:00E8H.5       PUBLIC        BT_CTL_BLE
  C:642BH         PUBLIC        ble_inquire_baud
  D:00B8H         PUBLIC        IP
  B:00E8H.7       PUBLIC        BRT_BLE
  B:00E8H.6       PUBLIC        MODE_CTL_BLE
  D:00D8H         PUBLIC        CCON
  D:0098H         PUBLIC        SCON
  D:0088H         PUBLIC        TCON
  C:6C79H         PUBLIC        ble_init
  C:5C6BH         PUBLIC        _ble_set_baud
  D:00D0H         PUBLIC        PSW
  -------         PROC          BLE_INIT
BL51 BANKED LINKER/LOCATER V6.22                                                      06/08/2016  14:58:03  PAGE 10


  C:6C79H         LINE#         5
  C:6C79H         LINE#         6
  C:6C79H         LINE#         7
  C:6C7CH         LINE#         8
  C:6C7FH         LINE#         10
  C:6C82H         LINE#         11
  C:6C85H         LINE#         13
  C:6C87H         LINE#         14
  C:6C89H         LINE#         15
  C:6C8BH         LINE#         16
  -------         ENDPROC       BLE_INIT
  -------         PROC          _BLE_SET_BAUD
  X:05FBH         SYMBOL        id
  -------         DO            
  X:05FCH         SYMBOL        i
  -------         ENDDO         
  C:5C6BH         LINE#         33
  C:5C70H         LINE#         34
  C:5C70H         LINE#         35
  C:5C75H         LINE#         36
  C:5C78H         LINE#         38
  C:5C7DH         LINE#         39
  C:5C82H         LINE#         40
  C:5C87H         LINE#         41
  C:5C8CH         LINE#         42
  C:5C94H         LINE#         44
  C:5C97H         LINE#         49
  C:5C9DH         LINE#         50
  C:5CA0H         LINE#         51
  C:5CB8H         LINE#         52
  C:5CC7H         LINE#         53
  C:5CD7H         LINE#         54
  C:5CE1H         LINE#         55
  C:5CEAH         LINE#         56
  C:5CF3H         LINE#         57
  C:5CF6H         LINE#         58
  C:5CF6H         LINE#         59
  C:5CF6H         LINE#         60
  C:5CFFH         LINE#         61
  C:5D08H         LINE#         62
  C:5D0AH         LINE#         63
  C:5D0AH         LINE#         64
  -------         ENDPROC       _BLE_SET_BAUD
  -------         PROC          BLE_INQUIRE_BAUD
  C:642BH         LINE#         71
  C:642BH         LINE#         72
  C:642BH         LINE#         73
  C:642EH         LINE#         75
  C:6433H         LINE#         76
  C:6438H         LINE#         77
  C:643DH         LINE#         78
  C:6442H         LINE#         80
  C:6445H         LINE#         84
  C:644EH         LINE#         86
  C:6455H         LINE#         87
  C:645BH         LINE#         88
  C:645DH         LINE#         89
BL51 BANKED LINKER/LOCATER V6.22                                                      06/08/2016  14:58:03  PAGE 11


  C:645DH         LINE#         91
  C:6464H         LINE#         93
  C:646DH         LINE#         94
  C:646FH         LINE#         95
  C:646FH         LINE#         96
  C:646FH         LINE#         97
  C:646FH         LINE#         99
  C:6478H         LINE#         100
  C:647AH         LINE#         101
  C:647AH         LINE#         102
  -------         ENDPROC       BLE_INQUIRE_BAUD
  -------         ENDMOD        BLE

  -------         MODULE        DELAY
  C:0000H         SYMBOL        _ICE_DUMMY_
  C:0016H         PUBLIC        Delay999ms
  C:0006H         PUBLIC        Delay3us
  C:6D98H         PUBLIC        Delay3000ms
  C:6D7AH         PUBLIC        Delay10ms
  C:6D5CH         PUBLIC        Delay20ms
  C:6DB6H         PUBLIC        Delay50ms
  C:6DC5H         PUBLIC        Delay100ms
  C:6DA7H         PUBLIC        Delay200ms
  C:6D89H         PUBLIC        Delay500ms
  C:6D6BH         PUBLIC        Delay150ms
  -------         PROC          DELAY999MS
  -------         DO            
  D:0007H         SYMBOL        i
  D:0006H         SYMBOL        j
  D:0005H         SYMBOL        k
  -------         ENDDO         
  C:0016H         LINE#         4
  C:0016H         LINE#         5
  C:0016H         LINE#         8
  C:0018H         LINE#         9
  C:001AH         LINE#         10
  C:001CH         LINE#         12
  C:001CH         LINE#         14
  C:001CH         LINE#         15
  C:001EH         LINE#         16
  C:0020H         LINE#         17
  C:0022H         LINE#         18
  -------         ENDPROC       DELAY999MS
  -------         PROC          DELAY20MS
  -------         DO            
  D:0007H         SYMBOL        i
  D:0006H         SYMBOL        j
  D:0005H         SYMBOL        k
  -------         ENDDO         
  C:6D5CH         LINE#         20
  C:6D5CH         LINE#         21
  C:6D5CH         LINE#         24
  C:6D5DH         LINE#         25
  C:6D5EH         LINE#         26
  C:6D60H         LINE#         27
  C:6D62H         LINE#         28
  C:6D64H         LINE#         30
BL51 BANKED LINKER/LOCATER V6.22                                                      06/08/2016  14:58:03  PAGE 12


  C:6D64H         LINE#         32
  C:6D64H         LINE#         33
  C:6D66H         LINE#         34
  C:6D68H         LINE#         35
  C:6D6AH         LINE#         36
  -------         ENDPROC       DELAY20MS
  -------         PROC          DELAY150MS
  -------         DO            
  D:0007H         SYMBOL        i
  D:0006H         SYMBOL        j
  D:0005H         SYMBOL        k
  -------         ENDDO         
  C:6D6BH         LINE#         38
  C:6D6BH         LINE#         39
  C:6D6BH         LINE#         42
  C:6D6CH         LINE#         43
  C:6D6DH         LINE#         44
  C:6D6FH         LINE#         45
  C:6D71H         LINE#         46
  C:6D73H         LINE#         48
  C:6D73H         LINE#         50
  C:6D73H         LINE#         51
  C:6D75H         LINE#         52
  C:6D77H         LINE#         53
  C:6D79H         LINE#         54
  -------         ENDPROC       DELAY150MS
  -------         PROC          DELAY10MS
  -------         DO            
  D:0007H         SYMBOL        i
  D:0006H         SYMBOL        j
  D:0005H         SYMBOL        k
  -------         ENDDO         
  C:6D7AH         LINE#         56
  C:6D7AH         LINE#         57
  C:6D7AH         LINE#         60
  C:6D7BH         LINE#         61
  C:6D7CH         LINE#         62
  C:6D7EH         LINE#         63
  C:6D80H         LINE#         64
  C:6D82H         LINE#         66
  C:6D82H         LINE#         68
  C:6D82H         LINE#         69
  C:6D84H         LINE#         70
  C:6D86H         LINE#         71
  C:6D88H         LINE#         72
  -------         ENDPROC       DELAY10MS
  -------         PROC          DELAY500MS
  -------         DO            
  D:0007H         SYMBOL        i
  D:0006H         SYMBOL        j
  D:0005H         SYMBOL        k
  -------         ENDDO         
  C:6D89H         LINE#         74
  C:6D89H         LINE#         75
  C:6D89H         LINE#         78
  C:6D8AH         LINE#         79
  C:6D8BH         LINE#         80
BL51 BANKED LINKER/LOCATER V6.22                                                      06/08/2016  14:58:03  PAGE 13


  C:6D8DH         LINE#         81
  C:6D8FH         LINE#         82
  C:6D91H         LINE#         84
  C:6D91H         LINE#         86
  C:6D91H         LINE#         87
  C:6D93H         LINE#         88
  C:6D95H         LINE#         89
  C:6D97H         LINE#         90
  -------         ENDPROC       DELAY500MS
  -------         PROC          DELAY3000MS
  -------         DO            
  D:0007H         SYMBOL        i
  D:0006H         SYMBOL        j
  D:0005H         SYMBOL        k
  -------         ENDDO         
  C:6D98H         LINE#         92
  C:6D98H         LINE#         93
  C:6D98H         LINE#         96
  C:6D99H         LINE#         97
  C:6D9AH         LINE#         98
  C:6D9CH         LINE#         99
  C:6D9EH         LINE#         100
  C:6DA0H         LINE#         102
  C:6DA0H         LINE#         104
  C:6DA0H         LINE#         105
  C:6DA2H         LINE#         106
  C:6DA4H         LINE#         107
  C:6DA6H         LINE#         108
  -------         ENDPROC       DELAY3000MS
  -------         PROC          DELAY200MS
  -------         DO            
  D:0007H         SYMBOL        i
  D:0006H         SYMBOL        j
  D:0005H         SYMBOL        k
  -------         ENDDO         
  C:6DA7H         LINE#         111
  C:6DA7H         LINE#         112
  C:6DA7H         LINE#         115
  C:6DA8H         LINE#         116
  C:6DA9H         LINE#         117
  C:6DABH         LINE#         118
  C:6DADH         LINE#         119
  C:6DAFH         LINE#         121
  C:6DAFH         LINE#         123
  C:6DAFH         LINE#         124
  C:6DB1H         LINE#         125
  C:6DB3H         LINE#         126
  C:6DB5H         LINE#         127
  -------         ENDPROC       DELAY200MS
  -------         PROC          DELAY50MS
  -------         DO            
  D:0007H         SYMBOL        i
  D:0006H         SYMBOL        j
  D:0005H         SYMBOL        k
  -------         ENDDO         
  C:6DB6H         LINE#         130
  C:6DB6H         LINE#         131
BL51 BANKED LINKER/LOCATER V6.22                                                      06/08/2016  14:58:03  PAGE 14


  C:6DB6H         LINE#         134
  C:6DB7H         LINE#         135
  C:6DB8H         LINE#         136
  C:6DBAH         LINE#         137
  C:6DBCH         LINE#         138
  C:6DBEH         LINE#         140
  C:6DBEH         LINE#         142
  C:6DBEH         LINE#         143
  C:6DC0H         LINE#         144
  C:6DC2H         LINE#         145
  C:6DC4H         LINE#         146
  -------         ENDPROC       DELAY50MS
  -------         PROC          DELAY3US
  -------         DO            
  D:0007H         SYMBOL        i
  -------         ENDDO         
  C:0006H         LINE#         148
  C:0006H         LINE#         149
  C:0006H         LINE#         152
  C:0008H         LINE#         153
  C:000AH         LINE#         154
  -------         ENDPROC       DELAY3US
  -------         PROC          DELAY100MS
  -------         DO            
  D:0007H         SYMBOL        i
  D:0006H         SYMBOL        j
  D:0005H         SYMBOL        k
  -------         ENDDO         
  C:6DC5H         LINE#         156
  C:6DC5H         LINE#         157
  C:6DC5H         LINE#         160
  C:6DC6H         LINE#         161
  C:6DC7H         LINE#         162
  C:6DC9H         LINE#         163
  C:6DCBH         LINE#         164
  C:6DCDH         LINE#         166
  C:6DCDH         LINE#         168
  C:6DCDH         LINE#         169
  C:6DCFH         LINE#         170
  C:6DD1H         LINE#         171
  C:6DD3H         LINE#         172
  -------         ENDPROC       DELAY100MS
  -------         ENDMOD        DELAY

  -------         MODULE        INDY
  C:0000H         SYMBOL        _ICE_DUMMY_
  D:0080H         PUBLIC        P0
  D:0090H         PUBLIC        P1
  X:04F6H         PUBLIC        uart2_body
  D:00A0H         PUBLIC        P2
  C:62CDH         PUBLIC        clear_uart2_mes
  D:00B0H         PUBLIC        P3
  D:00C0H         PUBLIC        P4
  D:00C8H         PUBLIC        P5
  D:00E8H         PUBLIC        P6
  D:00F8H         PUBLIC        P7
  C:627CH         PUBLIC        _write_mac_register
BL51 BANKED LINKER/LOCATER V6.22                                                      06/08/2016  14:58:03  PAGE 15


  D:00A8H         PUBLIC        IE
  B:00A8H.4       PUBLIC        ES
  D:00B8H         PUBLIC        IP
  C:6632H         PUBLIC        uart2_recv_proc
  D:00D8H         PUBLIC        CCON
  C:537CH         PUBLIC        uart2_sendMes
  C:009EH         PUBLIC        _index_send
  D:0098H         PUBLIC        SCON
  D:0088H         PUBLIC        TCON
  X:0516H         PUBLIC        rec_flag
  C:5005H         SYMBOL        _?ix1000
  C:5071H         SYMBOL        _?ix1010
  C:5029H         SYMBOL        _?ix1001
  C:50C1H         SYMBOL        _?ix1020
  C:5079H         SYMBOL        _?ix1011
  C:5031H         SYMBOL        _?ix1002
  C:510AH         SYMBOL        _?ix1030
  C:50C9H         SYMBOL        _?ix1021
  C:5081H         SYMBOL        _?ix1012
  C:5039H         SYMBOL        _?ix1003
  C:512AH         SYMBOL        _?ix1031
  C:50D1H         SYMBOL        _?ix1022
  C:5089H         SYMBOL        _?ix1013
  C:5041H         SYMBOL        _?ix1004
  C:5132H         SYMBOL        _?ix1032
  C:50D9H         SYMBOL        _?ix1023
  C:5091H         SYMBOL        _?ix1014
  C:5049H         SYMBOL        _?ix1005
  C:50DAH         SYMBOL        _?ix1024
  C:5099H         SYMBOL        _?ix1015
  C:5051H         SYMBOL        _?ix1006
  C:50E2H         SYMBOL        _?ix1025
  C:50A1H         SYMBOL        _?ix1016
  C:5059H         SYMBOL        _?ix1007
  C:50EAH         SYMBOL        _?ix1026
  C:50A9H         SYMBOL        _?ix1017
  C:5061H         SYMBOL        _?ix1008
  C:50F2H         SYMBOL        _?ix1027
  C:50B1H         SYMBOL        _?ix1018
  C:5069H         SYMBOL        _?ix1009
  C:50FAH         SYMBOL        _?ix1028
  C:50B9H         SYMBOL        _?ix1019
  C:5102H         SYMBOL        _?ix1029
  C:233DH         PUBLIC        _index_r_check
  C:65A7H         PUBLIC        indy_read_sensorcode
  C:49F5H         PUBLIC        process_packets
  X:0517H         PUBLIC        rec_flag_cnt
  C:6328H         PUBLIC        indy_readtemp
  C:647BH         PUBLIC        indy_readrssi
  D:00D0H         PUBLIC        PSW
  C:679DH         PUBLIC        _read_mac_register
  C:6271H         SYMBOL        L?0345
  C:6275H         SYMBOL        L?0346
  -------         PROC          L?0344
  -------         ENDPROC       L?0344
  C:6271H         SYMBOL        L?0345
  C:6275H         SYMBOL        L?0346
BL51 BANKED LINKER/LOCATER V6.22                                                      06/08/2016  14:58:03  PAGE 16


  -------         PROC          _WRITE_MAC_REGISTER
  X:05BCH         SYMBOL        addr
  X:05BEH         SYMBOL        w_data
  X:05C0H         SYMBOL        w_data_l
  C:627CH         LINE#         7
  C:6290H         LINE#         8
  C:6290H         LINE#         10
  C:6295H         LINE#         11
  C:629AH         LINE#         12
  C:62A3H         LINE#         13
  C:62ABH         LINE#         14
  C:62B4H         LINE#         15
  C:62BCH         LINE#         16
  C:62C5H         LINE#         17
  -------         ENDPROC       _WRITE_MAC_REGISTER
  -------         PROC          _READ_MAC_REGISTER
  X:0610H         SYMBOL        addr
  C:679DH         LINE#         20
  C:67A5H         LINE#         21
  C:67A5H         LINE#         23
  C:67AAH         LINE#         24
  C:67AFH         LINE#         25
  C:67B8H         LINE#         26
  C:67C0H         LINE#         27
  C:67C5H         LINE#         28
  C:67CAH         LINE#         29
  C:67CFH         LINE#         30
  -------         ENDPROC       _READ_MAC_REGISTER
  -------         PROC          UART2_SENDMES
  -------         DO            
  X:0518H         SYMBOL        i
  D:0007H         SYMBOL        sum
  X:0519H         SYMBOL        send_buf
  -------         ENDDO         
  C:537CH         LINE#         33
  C:537CH         LINE#         34
  C:537CH         LINE#         36
  C:537EH         LINE#         39
  C:5386H         LINE#         40
  C:538BH         LINE#         41
  C:538BH         LINE#         42
  C:53B3H         LINE#         43
  C:53BDH         LINE#         44
  C:53C2H         LINE#         45
  C:53C2H         LINE#         46
  C:53EAH         LINE#         47
  C:53F4H         LINE#         49
  C:5406H         LINE#         50
  C:5420H         LINE#         52
  C:5431H         LINE#         53
  C:5431H         LINE#         54
  C:5444H         LINE#         55
  C:544CH         LINE#         57
  C:5451H         LINE#         58
  C:5462H         LINE#         59
  C:5462H         LINE#         60
  C:5476H         LINE#         63
BL51 BANKED LINKER/LOCATER V6.22                                                      06/08/2016  14:58:03  PAGE 17


  C:547EH         LINE#         66
  -------         ENDPROC       UART2_SENDMES
  -------         PROC          CLEAR_UART2_MES
  -------         DO            
  D:0007H         SYMBOL        i
  -------         ENDDO         
  C:62CDH         LINE#         68
  C:62CDH         LINE#         69
  C:62CDH         LINE#         72
  C:62D2H         LINE#         73
  C:62D3H         LINE#         74
  C:62EAH         LINE#         75
  C:62ECH         LINE#         76
  C:6303H         LINE#         77
  C:630DH         LINE#         78
  C:6322H         LINE#         79
  C:6327H         LINE#         80
  -------         ENDPROC       CLEAR_UART2_MES
  -------         PROC          PROCESS_PACKETS
  -------         DO            
  X:0573H         SYMBOL        i
  X:0575H         SYMBOL        j
  X:0576H         SYMBOL        data_len
  X:0578H         SYMBOL        cmd_type
  X:057AH         SYMBOL        cmd_addr_fir
  X:057CH         SYMBOL        data_addr_fir
  X:057EH         SYMBOL        data_addr_end
  X:0580H         SYMBOL        epc_data_addr
  X:0582H         SYMBOL        sensor_data_addr
  X:0584H         SYMBOL        test
  X:0586H         SYMBOL        check_data
  B:0021H.0       SYMBOL        check_con1
  B:0021H.1       SYMBOL        check_con2
  X:0587H         SYMBOL        pkt_flag
  -------         ENDDO         
  C:49F5H         LINE#         82
  C:49F5H         LINE#         83
  C:49F5H         LINE#         85
  C:49FBH         LINE#         86
  C:4A00H         LINE#         87
  C:4A06H         LINE#         88
  C:4A0BH         LINE#         89
  C:4A0FH         LINE#         90
  C:4A13H         LINE#         91
  C:4A17H         LINE#         92
  C:4A1BH         LINE#         94
  C:4A21H         LINE#         95
  C:4A24H         LINE#         96
  C:4A26H         LINE#         97
  C:4A28H         LINE#         99
  C:4A2AH         LINE#         101
  C:4A2AH         LINE#         102
  C:4A2AH         LINE#         104
  C:4A42H         LINE#         105
  C:4A42H         LINE#         107
  C:4A56H         LINE#         108
  C:4A82H         LINE#         110
BL51 BANKED LINKER/LOCATER V6.22                                                      06/08/2016  14:58:03  PAGE 18


  C:4AA9H         LINE#         111
  C:4AB8H         LINE#         112
  C:4AD6H         LINE#         113
  C:4AF4H         LINE#         115
  C:4AFDH         LINE#         116
  C:4AFFH         LINE#         118
  C:4AFFH         LINE#         119
  C:4B01H         LINE#         120
  C:4B04H         LINE#         121
  C:4B04H         LINE#         123
  C:4B10H         LINE#         124
  C:4B10H         LINE#         125
  C:4B24H         LINE#         127
  C:4B3AH         LINE#         128
  C:4B3AH         LINE#         130
  C:4B63H         LINE#         131
  C:4B6CH         LINE#         132
  C:4B6EH         LINE#         133
  C:4B6EH         LINE#         135
  C:4B6EH         LINE#         136
  C:4B7DH         LINE#         137
  C:4B7DH         LINE#         138
  C:4B85H         LINE#         139
  C:4B8EH         LINE#         140
  C:4B8EH         LINE#         141
  C:4B96H         LINE#         142
  C:4BAFH         LINE#         143
  C:4BAFH         LINE#         144
  C:4BBCH         LINE#         147
  C:4BD1H         LINE#         148
  C:4BD1H         LINE#         149
  C:4BD1H         LINE#         150
  C:4BD8H         LINE#         151
  C:4BD8H         LINE#         152
  C:4C04H         LINE#         153
  C:4C0DH         LINE#         154
  C:4C2AH         LINE#         155
  C:4C2AH         LINE#         156
  C:4C2CH         LINE#         157
  C:4C2CH         LINE#         158
  C:4C33H         LINE#         159
  C:4C33H         LINE#         160
  C:4C5FH         LINE#         161
  C:4C68H         LINE#         162
  C:4C85H         LINE#         163
  C:4C85H         LINE#         164
  C:4C87H         LINE#         165
  C:4C87H         LINE#         166
  C:4C8CH         LINE#         167
  C:4CA1H         LINE#         168
  C:4CA7H         LINE#         169
  C:4CAAH         LINE#         170
  C:4CAAH         LINE#         171
  C:4CAFH         LINE#         172
  C:4CB1H         LINE#         173
  C:4CB4H         LINE#         174
  C:4CB4H         LINE#         175
BL51 BANKED LINKER/LOCATER V6.22                                                      06/08/2016  14:58:03  PAGE 19


  C:4CB4H         LINE#         177
  C:4CB4H         LINE#         180
  C:4CBDH         LINE#         181
  C:4CBDH         LINE#         185
  C:4CC0H         LINE#         187
  C:4CC0H         LINE#         192
  C:4CC9H         LINE#         193
  C:4CC9H         LINE#         194
  C:4CC9H         LINE#         195
  C:4CC9H         LINE#         197
  C:4CC9H         LINE#         199
  -------         ENDPROC       PROCESS_PACKETS
  -------         PROC          INDY_READ_SENSORCODE
  -------         DO            
  X:0612H         SYMBOL        rec_cnt
  -------         ENDDO         
  C:65A7H         LINE#         201
  C:65A7H         LINE#         202
  C:65A7H         LINE#         203
  C:65AEH         LINE#         207
  C:65B9H         LINE#         208
  C:65C0H         LINE#         209
  C:65C3H         LINE#         210
  C:65CFH         LINE#         211
  C:65DCH         LINE#         213
  C:65DFH         LINE#         224
  C:65E6H         LINE#         225
  C:65E6H         LINE#         226
  C:65E8H         LINE#         227
  C:65EBH         LINE#         228
  C:65EDH         LINE#         229
  C:65EDH         LINE#         231
  -------         ENDPROC       INDY_READ_SENSORCODE
  -------         PROC          INDY_READRSSI
  -------         DO            
  X:0614H         SYMBOL        rec_cnt
  -------         ENDDO         
  C:647BH         LINE#         233
  C:647BH         LINE#         234
  C:647BH         LINE#         236
  C:6482H         LINE#         240
  C:648DH         LINE#         241
  C:649BH         LINE#         242
  C:649EH         LINE#         243
  C:64AAH         LINE#         244
  C:64B7H         LINE#         245
  C:64BAH         LINE#         246
  C:64C1H         LINE#         247
  C:64C1H         LINE#         248
  C:64C3H         LINE#         249
  C:64C6H         LINE#         250
  C:64C8H         LINE#         251
  C:64C8H         LINE#         254
  -------         ENDPROC       INDY_READRSSI
  -------         PROC          INDY_READTEMP
  -------         DO            
  X:0616H         SYMBOL        rec_cnt
BL51 BANKED LINKER/LOCATER V6.22                                                      06/08/2016  14:58:03  PAGE 20


  -------         ENDDO         
  C:6328H         LINE#         261
  C:6328H         LINE#         262
  C:6328H         LINE#         264
  C:632FH         LINE#         266
  C:6338H         LINE#         268
  C:6338H         LINE#         269
  C:6344H         LINE#         270
  C:6352H         LINE#         271
  C:6355H         LINE#         272
  C:6361H         LINE#         273
  C:636EH         LINE#         275
  C:636EH         LINE#         276
  C:6371H         LINE#         277
  C:6374H         LINE#         289
  C:637BH         LINE#         290
  C:637BH         LINE#         291
  C:637DH         LINE#         292
  C:6380H         LINE#         293
  C:6382H         LINE#         294
  C:6382H         LINE#         297
  -------         ENDPROC       INDY_READTEMP
  -------         PROC          UART2_RECV_PROC
  -------         DO            
  D:0007H         SYMBOL        sum
  D:0006H         SYMBOL        i
  -------         ENDDO         
  C:6632H         LINE#         299
  C:6632H         LINE#         300
  C:6632H         LINE#         301
  C:6634H         LINE#         304
  C:663AH         LINE#         305
  C:663AH         LINE#         306
  C:6643H         LINE#         307
  C:6646H         LINE#         308
  C:6648H         LINE#         309
  C:6660H         LINE#         310
  C:6667H         LINE#         311
  C:666CH         LINE#         313
  C:666CH         LINE#         315
  C:666FH         LINE#         316
  C:6671H         LINE#         317
  C:6671H         LINE#         318
  C:6671H         LINE#         320
  C:6674H         LINE#         321
  -------         ENDPROC       UART2_RECV_PROC
  -------         PROC          _INDEX_SEND
  D:0007H         SYMBOL        id
  C:009EH         LINE#         324
  C:009EH         LINE#         325
  C:009EH         LINE#         326
  C:011CH         LINE#         327
  C:011CH         LINE#         328
  C:011CH         LINE#         329
  C:0121H         LINE#         330
  C:0123H         LINE#         331
  C:0123H         LINE#         332
BL51 BANKED LINKER/LOCATER V6.22                                                      06/08/2016  14:58:03  PAGE 21


  C:0123H         LINE#         333
  C:0123H         LINE#         334
  C:0123H         LINE#         335
  C:0123H         LINE#         336
  C:0123H         LINE#         337
  C:0125H         LINE#         338
  C:0125H         LINE#         339
  C:012AH         LINE#         340
  C:012CH         LINE#         341
  C:012CH         LINE#         342
  C:012CH         LINE#         343
  C:012CH         LINE#         344
  C:012CH         LINE#         345
  C:012CH         LINE#         346
  C:012CH         LINE#         347
  C:012EH         LINE#         349
  C:012EH         LINE#         350
  C:012EH         LINE#         351
  C:012EH         LINE#         352
  C:012EH         LINE#         353
  C:012EH         LINE#         354
  C:012EH         LINE#         355
  C:012EH         LINE#         356
  C:012EH         LINE#         357
  C:012EH         LINE#         358
  C:0130H         LINE#         360
  C:0130H         LINE#         361
  C:0130H         LINE#         362
  C:0130H         LINE#         363
  C:0130H         LINE#         364
  C:0130H         LINE#         365
  C:0130H         LINE#         366
  C:0130H         LINE#         367
  C:0130H         LINE#         368
  C:0130H         LINE#         369
  C:0132H         LINE#         371
  C:0132H         LINE#         372
  C:0132H         LINE#         373
  C:0132H         LINE#         374
  C:0132H         LINE#         375
  C:0132H         LINE#         376
  C:0132H         LINE#         377
  C:0132H         LINE#         378
  C:0132H         LINE#         379
  C:0132H         LINE#         380
  C:0135H         LINE#         382
  C:0135H         LINE#         393
  C:0135H         LINE#         394
  C:013AH         LINE#         395
  C:013FH         LINE#         396
  C:0141H         LINE#         397
  C:0141H         LINE#         398
  C:0141H         LINE#         399
  C:0141H         LINE#         400
  C:0141H         LINE#         401
  C:0141H         LINE#         402
  C:0143H         LINE#         403
BL51 BANKED LINKER/LOCATER V6.22                                                      06/08/2016  14:58:03  PAGE 22


  C:0143H         LINE#         404
  C:0148H         LINE#         405
  C:014DH         LINE#         406
  C:014FH         LINE#         407
  C:014FH         LINE#         408
  C:014FH         LINE#         409
  C:014FH         LINE#         410
  C:014FH         LINE#         411
  C:014FH         LINE#         412
  C:0151H         LINE#         414
  C:0151H         LINE#         415
  C:0156H         LINE#         416
  C:015BH         LINE#         417
  C:015DH         LINE#         418
  C:015DH         LINE#         419
  C:015DH         LINE#         420
  C:015DH         LINE#         421
  C:015DH         LINE#         422
  C:015DH         LINE#         423
  C:015FH         LINE#         425
  C:015FH         LINE#         426
  C:0164H         LINE#         427
  C:0169H         LINE#         428
  C:016BH         LINE#         429
  C:016BH         LINE#         430
  C:016BH         LINE#         431
  C:016BH         LINE#         432
  C:016BH         LINE#         433
  C:016BH         LINE#         434
  C:016DH         LINE#         436
  C:016DH         LINE#         437
  C:0172H         LINE#         438
  C:0177H         LINE#         439
  C:0179H         LINE#         440
  C:0179H         LINE#         441
  C:0179H         LINE#         442
  C:0179H         LINE#         443
  C:0179H         LINE#         444
  C:0179H         LINE#         445
  C:017BH         LINE#         447
  C:017BH         LINE#         448
  C:0180H         LINE#         449
  C:0185H         LINE#         450
  C:018AH         LINE#         451
  C:018CH         LINE#         452
  C:018CH         LINE#         453
  C:018CH         LINE#         454
  C:018CH         LINE#         455
  C:018CH         LINE#         456
  C:018FH         LINE#         458
  C:018FH         LINE#         459
  C:0194H         LINE#         460
  C:0199H         LINE#         461
  C:019EH         LINE#         462
  C:01A0H         LINE#         463
  C:01A0H         LINE#         464
  C:01A0H         LINE#         465
BL51 BANKED LINKER/LOCATER V6.22                                                      06/08/2016  14:58:03  PAGE 23


  C:01A0H         LINE#         466
  C:01A0H         LINE#         467
  C:01A3H         LINE#         469
  C:01A3H         LINE#         470
  C:01A8H         LINE#         471
  C:01ADH         LINE#         472
  C:01B2H         LINE#         473
  C:01B4H         LINE#         474
  C:01B4H         LINE#         475
  C:01B4H         LINE#         476
  C:01B4H         LINE#         477
  C:01B4H         LINE#         478
  C:01B7H         LINE#         481
  C:01B7H         LINE#         482
  C:01BCH         LINE#         483
  C:01C1H         LINE#         484
  C:01C6H         LINE#         485
  C:01CBH         LINE#         486
  C:01D0H         LINE#         487
  C:01D5H         LINE#         488
  C:01DAH         LINE#         489
  C:01DFH         LINE#         491
  C:01E4H         LINE#         492
  C:01E9H         LINE#         493
  C:01EEH         LINE#         494
  C:01F0H         LINE#         495
  C:01F0H         LINE#         496
  C:01F0H         LINE#         497
  C:01F0H         LINE#         498
  C:01F0H         LINE#         499
  C:01F3H         LINE#         501
  C:01F3H         LINE#         502
  C:01F8H         LINE#         503
  C:01FDH         LINE#         504
  C:0202H         LINE#         505
  C:0204H         LINE#         506
  C:0204H         LINE#         507
  C:0204H         LINE#         508
  C:0204H         LINE#         509
  C:0204H         LINE#         510
  C:0207H         LINE#         512
  C:0207H         LINE#         513
  C:020CH         LINE#         514
  C:0211H         LINE#         515
  C:0216H         LINE#         516
  C:021BH         LINE#         517
  C:0220H         LINE#         518
  C:0225H         LINE#         519
  C:022AH         LINE#         520
  C:022FH         LINE#         522
  C:0234H         LINE#         523
  C:0239H         LINE#         524
  C:023EH         LINE#         525
  C:0243H         LINE#         526
  C:0248H         LINE#         527
  C:024DH         LINE#         528
  C:0252H         LINE#         529
BL51 BANKED LINKER/LOCATER V6.22                                                      06/08/2016  14:58:03  PAGE 24


  C:0257H         LINE#         531
  C:025CH         LINE#         532
  C:0261H         LINE#         533
  C:0266H         LINE#         534
  C:0268H         LINE#         535
  C:0268H         LINE#         536
  C:0268H         LINE#         537
  C:0268H         LINE#         538
  C:0268H         LINE#         539
  C:026BH         LINE#         541
  C:026BH         LINE#         542
  C:0270H         LINE#         543
  C:0275H         LINE#         544
  C:027AH         LINE#         545
  C:027CH         LINE#         546
  C:027CH         LINE#         547
  C:027CH         LINE#         548
  C:027CH         LINE#         549
  C:027CH         LINE#         550
  C:027FH         LINE#         552
  C:027FH         LINE#         553
  C:0284H         LINE#         554
  C:0289H         LINE#         555
  C:028EH         LINE#         556
  C:0290H         LINE#         557
  C:0290H         LINE#         558
  C:0290H         LINE#         559
  C:0290H         LINE#         560
  C:0290H         LINE#         561
  C:0293H         LINE#         563
  C:0293H         LINE#         564
  C:0298H         LINE#         565
  C:029DH         LINE#         566
  C:02A2H         LINE#         567
  C:02A4H         LINE#         568
  C:02A4H         LINE#         569
  C:02A4H         LINE#         570
  C:02A4H         LINE#         571
  C:02A4H         LINE#         572
  C:02A7H         LINE#         574
  C:02A7H         LINE#         575
  C:02ACH         LINE#         576
  C:02B1H         LINE#         577
  C:02B6H         LINE#         578
  C:02B8H         LINE#         579
  C:02B8H         LINE#         580
  C:02B8H         LINE#         581
  C:02B8H         LINE#         582
  C:02B8H         LINE#         583
  C:02BBH         LINE#         585
  C:02BBH         LINE#         586
  C:02C0H         LINE#         587
  C:02C5H         LINE#         588
  C:02CAH         LINE#         589
  C:02CCH         LINE#         590
  C:02CCH         LINE#         591
  C:02CCH         LINE#         592
BL51 BANKED LINKER/LOCATER V6.22                                                      06/08/2016  14:58:03  PAGE 25


  C:02CCH         LINE#         593
  C:02CCH         LINE#         594
  C:02CFH         LINE#         596
  C:02CFH         LINE#         597
  C:02D4H         LINE#         598
  C:02D9H         LINE#         599
  C:02DEH         LINE#         600
  C:02E3H         LINE#         601
  C:02E8H         LINE#         602
  C:02EDH         LINE#         603
  C:02F2H         LINE#         604
  C:02F7H         LINE#         606
  C:02FCH         LINE#         607
  C:0301H         LINE#         608
  C:0306H         LINE#         609
  C:0308H         LINE#         610
  C:0308H         LINE#         611
  C:0308H         LINE#         612
  C:0308H         LINE#         613
  C:0308H         LINE#         614
  C:030BH         LINE#         616
  C:030BH         LINE#         663
  C:030BH         LINE#         670
  C:030BH         LINE#         671
  C:0310H         LINE#         672
  C:0315H         LINE#         673
  C:031AH         LINE#         674
  C:031FH         LINE#         675
  C:0324H         LINE#         676
  C:0329H         LINE#         677
  C:032EH         LINE#         678
  C:0333H         LINE#         680
  C:0338H         LINE#         681
  C:033DH         LINE#         682
  C:0342H         LINE#         683
  C:0344H         LINE#         684
  C:0344H         LINE#         685
  C:0344H         LINE#         686
  C:0344H         LINE#         687
  C:0344H         LINE#         688
  C:0347H         LINE#         690
  C:0347H         LINE#         691
  C:034CH         LINE#         692
  C:0351H         LINE#         693
  C:0356H         LINE#         694
  C:0358H         LINE#         695
  C:0358H         LINE#         696
  C:0358H         LINE#         697
  C:0358H         LINE#         698
  C:0358H         LINE#         699
  C:035BH         LINE#         701
  C:035BH         LINE#         712
  C:035BH         LINE#         713
  C:0360H         LINE#         714
  C:0365H         LINE#         715
  C:036AH         LINE#         716
  C:036FH         LINE#         717
BL51 BANKED LINKER/LOCATER V6.22                                                      06/08/2016  14:58:03  PAGE 26


  C:0374H         LINE#         718
  C:0379H         LINE#         719
  C:037EH         LINE#         720
  C:0383H         LINE#         722
  C:0388H         LINE#         723
  C:038DH         LINE#         724
  C:0392H         LINE#         725
  C:0394H         LINE#         726
  C:0394H         LINE#         727
  C:0394H         LINE#         728
  C:0394H         LINE#         729
  C:0394H         LINE#         730
  C:0396H         LINE#         732
  C:0396H         LINE#         733
  C:039BH         LINE#         734
  C:03A0H         LINE#         735
  C:03A5H         LINE#         736
  C:03A7H         LINE#         737
  C:03A7H         LINE#         738
  C:03A7H         LINE#         739
  C:03A7H         LINE#         740
  C:03A7H         LINE#         741
  C:03A9H         LINE#         743
  C:03A9H         LINE#         744
  C:03AEH         LINE#         745
  C:03B3H         LINE#         746
  C:03B8H         LINE#         747
  C:03BAH         LINE#         748
  C:03BAH         LINE#         749
  C:03BAH         LINE#         750
  C:03BAH         LINE#         751
  C:03BAH         LINE#         752
  C:03BCH         LINE#         754
  C:03BCH         LINE#         755
  C:03C1H         LINE#         756
  C:03C6H         LINE#         757
  C:03CBH         LINE#         758
  C:03D0H         LINE#         759
  C:03D2H         LINE#         760
  C:03D2H         LINE#         761
  C:03D2H         LINE#         762
  C:03D2H         LINE#         763
  C:03D4H         LINE#         764
  C:03D4H         LINE#         765
  C:03D9H         LINE#         766
  C:03DEH         LINE#         767
  C:03E3H         LINE#         768
  C:03E8H         LINE#         769
  C:03EAH         LINE#         770
  C:03EAH         LINE#         771
  C:03EAH         LINE#         772
  C:03EAH         LINE#         773
  C:03EAH         LINE#         775
  C:03EDH         LINE#         781
  C:03F2H         LINE#         782
  C:03F7H         LINE#         783
  C:03F9H         LINE#         784
BL51 BANKED LINKER/LOCATER V6.22                                                      06/08/2016  14:58:03  PAGE 27


  C:03FCH         LINE#         786
  C:03FCH         LINE#         787
  C:0424H         LINE#         788
  C:044CH         LINE#         789
  C:0474H         LINE#         790
  C:049CH         LINE#         792
  C:04C4H         LINE#         793
  C:04ECH         LINE#         794
  C:0514H         LINE#         795
  C:053CH         LINE#         797
  C:0564H         LINE#         798
  C:058CH         LINE#         799
  C:05B4H         LINE#         800
  C:05DCH         LINE#         802
  C:0604H         LINE#         803
  C:062CH         LINE#         804
  C:0654H         LINE#         805
  C:067CH         LINE#         807
  C:06A4H         LINE#         808
  C:06CCH         LINE#         809
  C:06F4H         LINE#         810
  C:071CH         LINE#         812
  C:0744H         LINE#         813
  C:076CH         LINE#         814
  C:0794H         LINE#         815
  C:07BCH         LINE#         817
  C:07E4H         LINE#         818
  C:080CH         LINE#         819
  C:0834H         LINE#         820
  C:085CH         LINE#         822
  C:0884H         LINE#         823
  C:08ACH         LINE#         824
  C:08D4H         LINE#         825
  C:08FCH         LINE#         827
  C:0924H         LINE#         828
  C:094CH         LINE#         829
  C:0974H         LINE#         830
  C:099CH         LINE#         832
  C:09C4H         LINE#         833
  C:09ECH         LINE#         834
  C:0A14H         LINE#         835
  C:0A3CH         LINE#         837
  C:0A64H         LINE#         838
  C:0A8CH         LINE#         839
  C:0AB4H         LINE#         840
  C:0ADCH         LINE#         842
  C:0B04H         LINE#         843
  C:0B2CH         LINE#         844
  C:0B54H         LINE#         845
  C:0B7CH         LINE#         847
  C:0BA4H         LINE#         848
  C:0BCCH         LINE#         849
  C:0BF4H         LINE#         850
  C:0C1CH         LINE#         852
  C:0C44H         LINE#         853
  C:0C6CH         LINE#         854
  C:0C94H         LINE#         855
BL51 BANKED LINKER/LOCATER V6.22                                                      06/08/2016  14:58:03  PAGE 28


  C:0CBCH         LINE#         857
  C:0CE4H         LINE#         858
  C:0D0CH         LINE#         859
  C:0D34H         LINE#         860
  C:0D5CH         LINE#         862
  C:0D84H         LINE#         863
  C:0DACH         LINE#         864
  C:0DD4H         LINE#         865
  C:0DFCH         LINE#         867
  C:0E24H         LINE#         868
  C:0E4CH         LINE#         869
  C:0E74H         LINE#         870
  C:0E9CH         LINE#         872
  C:0EC4H         LINE#         873
  C:0EECH         LINE#         874
  C:0F14H         LINE#         875
  C:0F3CH         LINE#         877
  C:0F64H         LINE#         878
  C:0F8CH         LINE#         879
  C:0FB4H         LINE#         880
  C:0FDCH         LINE#         882
  C:1004H         LINE#         883
  C:102CH         LINE#         884
  C:1054H         LINE#         885
  C:107CH         LINE#         887
  C:10A4H         LINE#         888
  C:10CCH         LINE#         889
  C:10F4H         LINE#         890
  C:111CH         LINE#         892
  C:1144H         LINE#         893
  C:116CH         LINE#         894
  C:1194H         LINE#         895
  C:11BCH         LINE#         897
  C:11E4H         LINE#         898
  C:120CH         LINE#         899
  C:1234H         LINE#         900
  C:125CH         LINE#         902
  C:1284H         LINE#         903
  C:12ACH         LINE#         904
  C:12D4H         LINE#         905
  C:12FCH         LINE#         907
  C:1324H         LINE#         908
  C:134CH         LINE#         909
  C:1374H         LINE#         910
  C:139CH         LINE#         912
  C:13C4H         LINE#         913
  C:13ECH         LINE#         914
  C:1414H         LINE#         915
  C:143CH         LINE#         917
  C:1464H         LINE#         918
  C:148CH         LINE#         919
  C:14B4H         LINE#         920
  C:14DCH         LINE#         922
  C:1504H         LINE#         923
  C:152CH         LINE#         924
  C:1554H         LINE#         925
  C:157CH         LINE#         927
BL51 BANKED LINKER/LOCATER V6.22                                                      06/08/2016  14:58:03  PAGE 29


  C:15A4H         LINE#         928
  C:15CCH         LINE#         929
  C:15F4H         LINE#         930
  C:161CH         LINE#         932
  C:1644H         LINE#         933
  C:166CH         LINE#         934
  C:1694H         LINE#         935
  C:16BCH         LINE#         937
  C:16E4H         LINE#         938
  C:170CH         LINE#         939
  C:1734H         LINE#         940
  C:175CH         LINE#         942
  C:1784H         LINE#         943
  C:17ACH         LINE#         944
  C:17D4H         LINE#         945
  C:17FCH         LINE#         947
  C:1824H         LINE#         948
  C:184CH         LINE#         949
  C:1874H         LINE#         950
  C:189CH         LINE#         952
  C:18C4H         LINE#         953
  C:18ECH         LINE#         954
  C:1914H         LINE#         955
  C:193CH         LINE#         957
  C:1964H         LINE#         958
  C:198CH         LINE#         959
  C:19B4H         LINE#         960
  C:19DCH         LINE#         962
  C:1A04H         LINE#         963
  C:1A2CH         LINE#         964
  C:1A54H         LINE#         965
  C:1A7CH         LINE#         967
  C:1AA4H         LINE#         968
  C:1ACCH         LINE#         969
  C:1AF4H         LINE#         970
  C:1B1CH         LINE#         972
  C:1B44H         LINE#         973
  C:1B6CH         LINE#         974
  C:1B94H         LINE#         975
  C:1BBCH         LINE#         977
  C:1BE4H         LINE#         978
  C:1C0CH         LINE#         979
  C:1C34H         LINE#         980
  C:1C5CH         LINE#         982
  C:1C84H         LINE#         983
  C:1CACH         LINE#         984
  C:1CD4H         LINE#         985
  C:1CFCH         LINE#         987
  C:1D24H         LINE#         988
  C:1D4CH         LINE#         989
  C:1D74H         LINE#         990
  C:1D9CH         LINE#         992
  C:1DC4H         LINE#         993
  C:1DECH         LINE#         994
  C:1E14H         LINE#         995
  C:1E3CH         LINE#         997
  C:1E64H         LINE#         998
BL51 BANKED LINKER/LOCATER V6.22                                                      06/08/2016  14:58:03  PAGE 30


  C:1E8CH         LINE#         999
  C:1EB4H         LINE#         1000
  C:1EDCH         LINE#         1002
  C:1F04H         LINE#         1003
  C:1F2CH         LINE#         1004
  C:1F54H         LINE#         1005
  C:1F7CH         LINE#         1007
  C:1FA4H         LINE#         1008
  C:1FCCH         LINE#         1009
  C:1FF4H         LINE#         1010
  C:201CH         LINE#         1012
  C:2044H         LINE#         1013
  C:206CH         LINE#         1014
  C:2094H         LINE#         1015
  C:20BCH         LINE#         1017
  C:20E4H         LINE#         1018
  C:210CH         LINE#         1019
  C:2134H         LINE#         1020
  C:215CH         LINE#         1022
  C:2184H         LINE#         1023
  C:21ACH         LINE#         1024
  C:21D4H         LINE#         1025
  C:21FCH         LINE#         1027
  C:2224H         LINE#         1028
  C:224CH         LINE#         1029
  C:2274H         LINE#         1030
  C:229CH         LINE#         1032
  C:22C4H         LINE#         1033
  C:22ECH         LINE#         1034
  C:2314H         LINE#         1035
  C:233CH         LINE#         1037
  C:233CH         LINE#         1040
  C:233CH         LINE#         1041
  C:233CH         LINE#         1042
  C:233CH         LINE#         1044
  -------         ENDPROC       _INDEX_SEND
  -------         PROC          _INDEX_R_CHECK
  X:039EH         SYMBOL        id
  -------         DO            
  X:039FH         SYMBOL        i
  X:03A0H         SYMBOL        index_r1_num
  X:03A1H         SYMBOL        index_r1
  X:03C5H         SYMBOL        index_r2_num
  X:03C6H         SYMBOL        index_r2
  X:03CEH         SYMBOL        index_r3_num
  X:03CFH         SYMBOL        index_r3
  X:03D7H         SYMBOL        index_r4_num
  X:03D8H         SYMBOL        index_r4
  X:03E0H         SYMBOL        index_r5_num
  X:03E1H         SYMBOL        index_r5
  X:03E9H         SYMBOL        index_r6_num
  X:03EAH         SYMBOL        index_r6
  X:03F2H         SYMBOL        index_r7_num
  X:03F3H         SYMBOL        index_r7
  X:03FBH         SYMBOL        index_r8_num
  X:03FCH         SYMBOL        index_r8
  X:0404H         SYMBOL        index_r9_num
BL51 BANKED LINKER/LOCATER V6.22                                                      06/08/2016  14:58:03  PAGE 31


  X:0405H         SYMBOL        index_r9
  X:040DH         SYMBOL        index_r10_num
  X:040EH         SYMBOL        index_r10
  X:0416H         SYMBOL        index_r11_num
  X:0417H         SYMBOL        index_r11
  X:041FH         SYMBOL        index_r12_num
  X:0420H         SYMBOL        index_r12
  X:0428H         SYMBOL        index_r13_num
  X:0429H         SYMBOL        index_r13
  X:0431H         SYMBOL        index_r14_num
  X:0432H         SYMBOL        index_r14
  X:043AH         SYMBOL        index_r15_num
  X:043BH         SYMBOL        index_r15
  X:0443H         SYMBOL        index_r16_num
  X:0444H         SYMBOL        index_r16
  X:044CH         SYMBOL        index_r17_num
  X:044DH         SYMBOL        index_r17
  X:0455H         SYMBOL        index_r18_num
  X:0456H         SYMBOL        index_r18
  X:045EH         SYMBOL        index_r19_num
  X:045FH         SYMBOL        index_r19
  X:0467H         SYMBOL        index_r20_num
  X:0468H         SYMBOL        index_r20
  X:0470H         SYMBOL        index_r21_num
  X:0471H         SYMBOL        index_r21
  X:0479H         SYMBOL        index_r22_num
  X:047AH         SYMBOL        index_r22
  X:0482H         SYMBOL        index_r23_num
  X:0483H         SYMBOL        index_r23
  X:048BH         SYMBOL        index_r24_num
  X:048CH         SYMBOL        index_r24
  X:048DH         SYMBOL        index_r25_num
  X:048EH         SYMBOL        index_r25
  X:0496H         SYMBOL        index_r26_num
  X:0497H         SYMBOL        index_r26
  X:049FH         SYMBOL        index_r27_num
  X:04A0H         SYMBOL        index_r27
  X:04A8H         SYMBOL        index_r28_num
  X:04A9H         SYMBOL        index_r28
  X:04B1H         SYMBOL        index_r29_num
  X:04B2H         SYMBOL        index_r29
  X:04BAH         SYMBOL        index_r30_num
  X:04BBH         SYMBOL        index_r30
  X:04C3H         SYMBOL        index_r31_num
  X:04C4H         SYMBOL        index_r31
  X:04E4H         SYMBOL        index_r32_num
  X:04E5H         SYMBOL        index_r32
  X:04EDH         SYMBOL        index_r33_num
  X:04EEH         SYMBOL        index_r33
  -------         ENDDO         
  C:233DH         LINE#         1046
  C:2342H         LINE#         1047
  C:2342H         LINE#         1050
  C:2348H         LINE#         1051
  C:235AH         LINE#         1052
  C:2360H         LINE#         1053
  C:2372H         LINE#         1054
BL51 BANKED LINKER/LOCATER V6.22                                                      06/08/2016  14:58:03  PAGE 32


  C:2378H         LINE#         1055
  C:238AH         LINE#         1056
  C:2390H         LINE#         1057
  C:23A2H         LINE#         1058
  C:23A8H         LINE#         1059
  C:23BAH         LINE#         1061
  C:23C0H         LINE#         1062
  C:23D2H         LINE#         1064
  C:23D8H         LINE#         1065
  C:23EAH         LINE#         1067
  C:23F0H         LINE#         1068
  C:2402H         LINE#         1070
  C:2408H         LINE#         1071
  C:241AH         LINE#         1073
  C:2420H         LINE#         1074
  C:2432H         LINE#         1076
  C:2438H         LINE#         1077
  C:244AH         LINE#         1079
  C:2450H         LINE#         1080
  C:2462H         LINE#         1082
  C:2468H         LINE#         1083
  C:247AH         LINE#         1085
  C:2480H         LINE#         1086
  C:2492H         LINE#         1088
  C:2498H         LINE#         1089
  C:24AAH         LINE#         1091
  C:24B0H         LINE#         1092
  C:24C2H         LINE#         1094
  C:24C8H         LINE#         1095
  C:24DAH         LINE#         1097
  C:24E0H         LINE#         1098
  C:24F2H         LINE#         1100
  C:24F8H         LINE#         1101
  C:250AH         LINE#         1103
  C:2510H         LINE#         1104
  C:2522H         LINE#         1106
  C:2528H         LINE#         1107
  C:253AH         LINE#         1109
  C:2540H         LINE#         1110
  C:2552H         LINE#         1112
  C:2558H         LINE#         1113
  C:256AH         LINE#         1115
  C:256FH         LINE#         1116
  C:2581H         LINE#         1119
  C:2587H         LINE#         1120
  C:2599H         LINE#         1121
  C:259FH         LINE#         1122
  C:25B1H         LINE#         1123
  C:25B7H         LINE#         1124
  C:25C9H         LINE#         1125
  C:25CFH         LINE#         1126
  C:25E1H         LINE#         1127
  C:25E7H         LINE#         1128
  C:25F9H         LINE#         1129
  C:25FFH         LINE#         1130
  C:2611H         LINE#         1131
  C:2617H         LINE#         1132
BL51 BANKED LINKER/LOCATER V6.22                                                      06/08/2016  14:58:03  PAGE 33


  C:2629H         LINE#         1133
  C:262FH         LINE#         1134
  C:2641H         LINE#         1135
  C:2647H         LINE#         1136
  C:2659H         LINE#         1140
  C:26D7H         LINE#         1141
  C:26D7H         LINE#         1142
  C:26D7H         LINE#         1143
  C:26F4H         LINE#         1144
  C:26F4H         LINE#         1145
  C:271AH         LINE#         1146
  C:271AH         LINE#         1147
  C:271DH         LINE#         1148
  C:271DH         LINE#         1149
  C:2725H         LINE#         1150
  C:2725H         LINE#         1151
  C:2725H         LINE#         1152
  C:2742H         LINE#         1153
  C:2742H         LINE#         1154
  C:2768H         LINE#         1155
  C:2768H         LINE#         1156
  C:276BH         LINE#         1157
  C:276BH         LINE#         1158
  C:2773H         LINE#         1159
  C:2773H         LINE#         1160
  C:2773H         LINE#         1161
  C:2790H         LINE#         1162
  C:2790H         LINE#         1163
  C:27B6H         LINE#         1164
  C:27B6H         LINE#         1165
  C:27B9H         LINE#         1166
  C:27B9H         LINE#         1167
  C:27C1H         LINE#         1168
  C:27C1H         LINE#         1169
  C:27C1H         LINE#         1170
  C:27DEH         LINE#         1171
  C:27DEH         LINE#         1172
  C:2804H         LINE#         1173
  C:2804H         LINE#         1174
  C:2807H         LINE#         1175
  C:2807H         LINE#         1176
  C:280FH         LINE#         1177
  C:280FH         LINE#         1178
  C:280FH         LINE#         1179
  C:282CH         LINE#         1180
  C:282CH         LINE#         1181
  C:2852H         LINE#         1182
  C:2852H         LINE#         1183
  C:2855H         LINE#         1184
  C:2855H         LINE#         1185
  C:285DH         LINE#         1186
  C:285DH         LINE#         1187
  C:285DH         LINE#         1188
  C:287AH         LINE#         1189
  C:287AH         LINE#         1190
  C:28A0H         LINE#         1191
  C:28A0H         LINE#         1192
BL51 BANKED LINKER/LOCATER V6.22                                                      06/08/2016  14:58:03  PAGE 34


  C:28A3H         LINE#         1193
  C:28A3H         LINE#         1194
  C:28ABH         LINE#         1195
  C:28ABH         LINE#         1197
  C:28ABH         LINE#         1198
  C:28C8H         LINE#         1199
  C:28C8H         LINE#         1200
  C:28EEH         LINE#         1201
  C:28EEH         LINE#         1202
  C:28F1H         LINE#         1203
  C:28F1H         LINE#         1204
  C:28F9H         LINE#         1205
  C:28F9H         LINE#         1206
  C:28F9H         LINE#         1207
  C:2916H         LINE#         1208
  C:2916H         LINE#         1209
  C:293CH         LINE#         1210
  C:293CH         LINE#         1211
  C:293FH         LINE#         1212
  C:293FH         LINE#         1213
  C:2947H         LINE#         1214
  C:2947H         LINE#         1215
  C:2947H         LINE#         1216
  C:2964H         LINE#         1217
  C:2964H         LINE#         1218
  C:298AH         LINE#         1219
  C:298AH         LINE#         1220
  C:298DH         LINE#         1221
  C:298DH         LINE#         1222
  C:2995H         LINE#         1223
  C:2995H         LINE#         1224
  C:2995H         LINE#         1225
  C:29B2H         LINE#         1226
  C:29B2H         LINE#         1227
  C:29D8H         LINE#         1228
  C:29D8H         LINE#         1229
  C:29DBH         LINE#         1230
  C:29DBH         LINE#         1231
  C:29E3H         LINE#         1232
  C:29E3H         LINE#         1233
  C:29E3H         LINE#         1234
  C:2A00H         LINE#         1235
  C:2A00H         LINE#         1236
  C:2A26H         LINE#         1237
  C:2A26H         LINE#         1238
  C:2A29H         LINE#         1239
  C:2A29H         LINE#         1240
  C:2A31H         LINE#         1241
  C:2A31H         LINE#         1242
  C:2A31H         LINE#         1246
  C:2A4EH         LINE#         1247
  C:2A4EH         LINE#         1248
  C:2A74H         LINE#         1249
  C:2A74H         LINE#         1250
  C:2A77H         LINE#         1251
  C:2A77H         LINE#         1252
  C:2A7FH         LINE#         1253
BL51 BANKED LINKER/LOCATER V6.22                                                      06/08/2016  14:58:03  PAGE 35


  C:2A7FH         LINE#         1255
  C:2A7FH         LINE#         1256
  C:2A9CH         LINE#         1257
  C:2A9CH         LINE#         1258
  C:2AC2H         LINE#         1259
  C:2AC2H         LINE#         1260
  C:2AC5H         LINE#         1261
  C:2AC5H         LINE#         1262
  C:2ACDH         LINE#         1263
  C:2ACDH         LINE#         1264
  C:2ACDH         LINE#         1265
  C:2AEAH         LINE#         1266
  C:2AEAH         LINE#         1267
  C:2B10H         LINE#         1268
  C:2B10H         LINE#         1269
  C:2B13H         LINE#         1270
  C:2B13H         LINE#         1271
  C:2B1BH         LINE#         1272
  C:2B1BH         LINE#         1274
  C:2B1BH         LINE#         1275
  C:2B38H         LINE#         1276
  C:2B38H         LINE#         1277
  C:2B5EH         LINE#         1278
  C:2B5EH         LINE#         1279
  C:2B61H         LINE#         1280
  C:2B61H         LINE#         1281
  C:2B69H         LINE#         1282
  C:2B69H         LINE#         1283
  C:2B69H         LINE#         1284
  C:2B86H         LINE#         1285
  C:2B86H         LINE#         1286
  C:2BACH         LINE#         1287
  C:2BACH         LINE#         1288
  C:2BAFH         LINE#         1289
  C:2BAFH         LINE#         1290
  C:2BB7H         LINE#         1291
  C:2BB7H         LINE#         1293
  C:2BB7H         LINE#         1299
  C:2BD4H         LINE#         1300
  C:2BD4H         LINE#         1301
  C:2BFAH         LINE#         1302
  C:2BFAH         LINE#         1305
  C:2BFDH         LINE#         1306
  C:2BFDH         LINE#         1307
  C:2C05H         LINE#         1308
  C:2C05H         LINE#         1309
  C:2C05H         LINE#         1310
  C:2C22H         LINE#         1311
  C:2C22H         LINE#         1312
  C:2C48H         LINE#         1313
  C:2C48H         LINE#         1314
  C:2C4BH         LINE#         1315
  C:2C4BH         LINE#         1316
  C:2C53H         LINE#         1317
  C:2C53H         LINE#         1318
  C:2C53H         LINE#         1319
  C:2C70H         LINE#         1320
BL51 BANKED LINKER/LOCATER V6.22                                                      06/08/2016  14:58:03  PAGE 36


  C:2C70H         LINE#         1321
  C:2C96H         LINE#         1322
  C:2C96H         LINE#         1323
  C:2C99H         LINE#         1324
  C:2C99H         LINE#         1325
  C:2CA1H         LINE#         1326
  C:2CA1H         LINE#         1327
  C:2CA1H         LINE#         1330
  C:2CA1H         LINE#         1332
  C:2CA1H         LINE#         1333
  C:2CA4H         LINE#         1334
  C:2CA4H         LINE#         1335
  C:2CA4H         LINE#         1336
  C:2CA4H         LINE#         1337
  C:2CA4H         LINE#         1338
  C:2CC1H         LINE#         1339
  C:2CC1H         LINE#         1340
  C:2CE7H         LINE#         1341
  C:2CE7H         LINE#         1342
  C:2CEAH         LINE#         1343
  C:2CEAH         LINE#         1344
  C:2CF2H         LINE#         1345
  C:2CF2H         LINE#         1346
  C:2CF2H         LINE#         1347
  C:2D0FH         LINE#         1348
  C:2D0FH         LINE#         1349
  C:2D35H         LINE#         1350
  C:2D35H         LINE#         1352
  C:2D38H         LINE#         1353
  C:2D38H         LINE#         1354
  C:2D40H         LINE#         1355
  C:2D40H         LINE#         1357
  C:2D40H         LINE#         1358
  C:2D5DH         LINE#         1359
  C:2D5DH         LINE#         1360
  C:2D83H         LINE#         1361
  C:2D83H         LINE#         1362
  C:2D86H         LINE#         1363
  C:2D86H         LINE#         1364
  C:2D8EH         LINE#         1365
  C:2D8EH         LINE#         1366
  C:2D8EH         LINE#         1367
  C:2DABH         LINE#         1368
  C:2DABH         LINE#         1369
  C:2DD1H         LINE#         1370
  C:2DD1H         LINE#         1371
  C:2DD4H         LINE#         1372
  C:2DD4H         LINE#         1373
  C:2DDCH         LINE#         1374
  C:2DDCH         LINE#         1377
  C:2DDCH         LINE#         1378
  C:2DF9H         LINE#         1379
  C:2DF9H         LINE#         1380
  C:2E1FH         LINE#         1381
  C:2E1FH         LINE#         1382
  C:2E22H         LINE#         1383
  C:2E22H         LINE#         1384
BL51 BANKED LINKER/LOCATER V6.22                                                      06/08/2016  14:58:03  PAGE 37


  C:2E2AH         LINE#         1385
  C:2E2AH         LINE#         1386
  C:2E2AH         LINE#         1387
  C:2E47H         LINE#         1388
  C:2E47H         LINE#         1389
  C:2E6DH         LINE#         1390
  C:2E6DH         LINE#         1391
  C:2E70H         LINE#         1392
  C:2E70H         LINE#         1393
  C:2E78H         LINE#         1394
  C:2E78H         LINE#         1396
  C:2E78H         LINE#         1397
  C:2E95H         LINE#         1398
  C:2E95H         LINE#         1399
  C:2EBBH         LINE#         1400
  C:2EBBH         LINE#         1401
  C:2EBEH         LINE#         1402
  C:2EBEH         LINE#         1403
  C:2EC6H         LINE#         1404
  C:2EC6H         LINE#         1405
  C:2EC6H         LINE#         1406
  C:2EE3H         LINE#         1407
  C:2EE3H         LINE#         1408
  C:2F09H         LINE#         1409
  C:2F09H         LINE#         1410
  C:2F0CH         LINE#         1411
  C:2F0CH         LINE#         1412
  C:2F14H         LINE#         1413
  C:2F14H         LINE#         1414
  C:2F14H         LINE#         1415
  C:2F31H         LINE#         1416
  C:2F31H         LINE#         1417
  C:2F57H         LINE#         1418
  C:2F57H         LINE#         1419
  C:2F5AH         LINE#         1420
  C:2F5AH         LINE#         1421
  C:2F62H         LINE#         1422
  C:2F62H         LINE#         1423
  C:2F62H         LINE#         1424
  C:2F7FH         LINE#         1425
  C:2F7FH         LINE#         1426
  C:2FA5H         LINE#         1427
  C:2FA5H         LINE#         1428
  C:2FA8H         LINE#         1429
  C:2FA8H         LINE#         1430
  C:2FB0H         LINE#         1431
  C:2FB0H         LINE#         1432
  C:2FB0H         LINE#         1438
  C:2FB0H         LINE#         1439
  C:2FB0H         LINE#         1440
  C:2FB0H         LINE#         1441
  C:2FB0H         LINE#         1442
  C:2FCDH         LINE#         1443
  C:2FCDH         LINE#         1444
  C:2FF3H         LINE#         1445
  C:2FF3H         LINE#         1446
  C:2FF5H         LINE#         1447
BL51 BANKED LINKER/LOCATER V6.22                                                      06/08/2016  14:58:03  PAGE 38


  C:2FF5H         LINE#         1448
  C:2FFDH         LINE#         1449
  C:2FFDH         LINE#         1451
  C:2FFDH         LINE#         1452
  C:3017H         LINE#         1453
  C:3017H         LINE#         1454
  C:303DH         LINE#         1455
  C:303DH         LINE#         1456
  C:3043H         LINE#         1457
  C:3043H         LINE#         1458
  C:304BH         LINE#         1459
  C:304BH         LINE#         1461
  C:304BH         LINE#         1462
  C:304EH         LINE#         1463
  C:304EH         LINE#         1465
  C:304EH         LINE#         1468
  C:3050H         LINE#         1469
  -------         ENDPROC       _INDEX_R_CHECK
  -------         ENDMOD        INDY

  -------         MODULE        STC15_OLED
  C:0000H         SYMBOL        _ICE_DUMMY_
  D:0096H         PUBLIC        P2M0
  D:0080H         PUBLIC        P0
  D:0095H         PUBLIC        P2M1
  D:0090H         PUBLIC        P1
  D:00A0H         PUBLIC        P2
  D:00B0H         PUBLIC        P3
  D:00C0H         PUBLIC        P4
  C:5817H         PUBLIC        _OledWriteBufByHex57
  C:5266H         PUBLIC        _OledWriteWordByHex57
  D:00E2H         PUBLIC        P7M0
  D:00C8H         PUBLIC        P5
  D:00E1H         PUBLIC        P7M1
  D:00E8H         PUBLIC        P6
  D:00F8H         PUBLIC        P7
  C:5D0BH         PUBLIC        _OledFlushPage
  C:60D6H         PUBLIC        _OledFlush
  B:00A0H.4       PUBLIC        DC_OLED
  D:00A8H         PUBLIC        IE
  C:5EBEH         PUBLIC        _OledWriteBufByHex
  C:547FH         PUBLIC        _OledWriteWordByHex
  D:00B8H         PUBLIC        IP
  C:6C5FH         PUBLIC        _WR1BData
  B:00A0H.3       PUBLIC        CS_OLED
  C:6D0AH         PUBLIC        InitOled
  D:00D8H         PUBLIC        CCON
  B:00E8H.1       PUBLIC        VDDB_OLED
  C:69C5H         PUBLIC        _clearPageCol
  C:5DA1H         PUBLIC        _OledAssicForState
  C:6972H         PUBLIC        _SetStartColumn
  C:6D3CH         PUBLIC        OledPowerDown
  C:6DDBH         PUBLIC        _WR1BCmd
  B:00F8H.4       PUBLIC        SCLK_OLED
  D:0098H         PUBLIC        SCON
  B:00A0H.7       PUBLIC        SDIN_OLED
  D:0088H         PUBLIC        TCON
BL51 BANKED LINKER/LOCATER V6.22                                                      06/08/2016  14:58:03  PAGE 39


  C:6AFDH         PUBLIC        _SetStartPage
  C:68D6H         PUBLIC        _WRByte
  C:58F4H         PUBLIC        _OledWriteMessage57
  B:00A0H.1       PUBLIC        BS1_OLED
  C:6DECH         PUBLIC        OledEnteringSleepMode
  B:00A0H.2       PUBLIC        BS2_OLED
  C:5FD4H         PUBLIC        OledPowerUp
  C:4401H         PUBLIC        _OledWriteMessage
  C:6D35H         PUBLIC        _uDelay
  C:6D1BH         PUBLIC        OledExitingSleepMode
  C:6937H         PUBLIC        OledClear
  C:6059H         PUBLIC        _OledWriteAssic57
  D:00D0H         PUBLIC        PSW
  -------         PROC          INITOLED
  C:6D0AH         LINE#         3
  C:6D0AH         LINE#         4
  C:6D0AH         LINE#         9
  C:6D0DH         LINE#         10
  C:6D10H         LINE#         12
  C:6D12H         LINE#         13
  C:6D14H         LINE#         29
  C:6D17H         LINE#         30
  C:6D1AH         LINE#         32
  -------         ENDPROC       INITOLED
  -------         PROC          L?0211
  -------         ENDPROC       L?0211
  -------         PROC          _UDELAY
  D:0007H         SYMBOL        t
  C:6D35H         LINE#         35
  C:6D35H         LINE#         36
  C:6D35H         LINE#         37
  C:6D3BH         LINE#         38
  -------         ENDPROC       _UDELAY
  -------         PROC          _WRBYTE
  D:0003H         SYMBOL        dat
  D:0005H         SYMBOL        bIsCmd
  -------         DO            
  D:0002H         SYMBOL        i
  -------         ENDDO         
  C:68D6H         LINE#         41
  C:68D8H         LINE#         42
  C:68D8H         LINE#         43
  C:68DAH         LINE#         44
  C:68DCH         LINE#         45
  C:68E0H         LINE#         46
  C:68E0H         LINE#         47
  C:68E2H         LINE#         48
  C:68E4H         LINE#         49
  C:68E4H         LINE#         50
  C:68E6H         LINE#         51
  C:68E6H         LINE#         52
  C:68ECH         LINE#         53
  C:68ECH         LINE#         54
  C:68EEH         LINE#         55
  C:68F4H         LINE#         56
  C:68F4H         LINE#         57
  C:68F4H         LINE#         58
BL51 BANKED LINKER/LOCATER V6.22                                                      06/08/2016  14:58:03  PAGE 40


  C:68F7H         LINE#         59
  C:68FDH         LINE#         60
  C:68FFH         LINE#         61
  C:6901H         LINE#         62
  C:6901H         LINE#         63
  C:6901H         LINE#         65
  C:6904H         LINE#         66
  C:6906H         LINE#         67
  -------         ENDPROC       _WRBYTE
  C:6C4FH         SYMBOL        L?0204
  C:6C55H         SYMBOL        L?0205
  C:6C5AH         SYMBOL        L?0206
  -------         PROC          L?0203
  -------         ENDPROC       L?0203
  C:6C4FH         SYMBOL        L?0204
  C:6C55H         SYMBOL        L?0205
  C:6C5AH         SYMBOL        L?0206
  -------         PROC          _WR1BDATA
  D:0007H         SYMBOL        dat
  C:6C5FH         LINE#         69
  C:6C5FH         LINE#         70
  C:6C5FH         LINE#         71
  -------         ENDPROC       _WR1BDATA
  C:6DD6H         SYMBOL        L?0210
  -------         PROC          L?0209
  -------         ENDPROC       L?0209
  C:6DD6H         SYMBOL        L?0210
  -------         PROC          _WR1BCMD
  D:0007H         SYMBOL        cmd
  C:6DDBH         LINE#         74
  C:6DDBH         LINE#         75
  C:6DDBH         LINE#         76
  -------         ENDPROC       _WR1BCMD
  -------         PROC          OLEDPOWERUP
  -------         DO            
  D:0006H         SYMBOL        i
  X:0563H         SYMBOL        a
  -------         ENDDO         
  C:5FD4H         LINE#         80
  C:5FD4H         LINE#         81
  C:5FD4H         LINE#         82
  C:5FD7H         LINE#         83
  C:5FDDH         LINE#         84
  C:5FE8H         LINE#         85
  C:5FEDH         LINE#         90
  C:5FF7H         LINE#         92
  C:6001H         LINE#         93
  C:600BH         LINE#         94
  C:600DH         LINE#         96
  C:6015H         LINE#         97
  C:601AH         LINE#         98
  C:601FH         LINE#         100
  C:6029H         LINE#         101
  C:6033H         LINE#         102
  C:603DH         LINE#         103
  C:6047H         LINE#         104
  C:604CH         LINE#         105
BL51 BANKED LINKER/LOCATER V6.22                                                      06/08/2016  14:58:03  PAGE 41


  C:6051H         LINE#         106
  C:6056H         LINE#         110
  -------         ENDPROC       OLEDPOWERUP
  -------         PROC          OLEDPOWERDOWN
  C:6D3CH         LINE#         114
  C:6D3CH         LINE#         115
  C:6D3CH         LINE#         116
  C:6D3CH         LINE#         117
  C:6D3FH         LINE#         118
  C:6D44H         LINE#         119
  C:6D47H         LINE#         120
  C:6D49H         LINE#         121
  -------         ENDPROC       OLEDPOWERDOWN
  -------         PROC          OLEDENTERINGSLEEPMODE
  C:6DECH         LINE#         126
  C:6DECH         LINE#         127
  C:6DECH         LINE#         128
  C:6DECH         LINE#         129
  C:6DEFH         LINE#         130
  C:6DF4H         LINE#         131
  C:6DF6H         LINE#         132
  -------         ENDPROC       OLEDENTERINGSLEEPMODE
  -------         PROC          OLEDEXITINGSLEEPMODE
  C:6D1BH         LINE#         134
  C:6D1BH         LINE#         135
  C:6D1BH         LINE#         136
  C:6D1DH         LINE#         137
  C:6D22H         LINE#         138
  C:6D27H         LINE#         139
  -------         ENDPROC       OLEDEXITINGSLEEPMODE
  -------         PROC          L?0212
  -------         ENDPROC       L?0212
  -------         PROC          _SETSTARTPAGE
  D:0007H         SYMBOL        page
  C:6AFDH         LINE#         143
  C:6AFDH         LINE#         144
  C:6AFDH         LINE#         145
  C:6B03H         LINE#         146
  C:6B08H         LINE#         147
  C:6B0BH         LINE#         148
  C:6B0BH         LINE#         149
  C:6B14H         LINE#         150
  C:6B16H         LINE#         151
  -------         ENDPROC       _SETSTARTPAGE
  C:696AH         SYMBOL        L?0208
  -------         PROC          L?0207
  -------         ENDPROC       L?0207
  C:696AH         SYMBOL        L?0208
  -------         PROC          _SETSTARTCOLUMN
  D:0004H         SYMBOL        ColumnAddress
  C:6972H         LINE#         153
  C:6974H         LINE#         154
  C:6974H         LINE#         155
  C:697AH         LINE#         156
  C:697DH         LINE#         157
  C:697DH         LINE#         159
  C:6981H         LINE#         161
BL51 BANKED LINKER/LOCATER V6.22                                                      06/08/2016  14:58:03  PAGE 42


  C:6987H         LINE#         162
  C:6993H         LINE#         163
  C:6995H         LINE#         164
  -------         ENDPROC       _SETSTARTCOLUMN
  -------         PROC          OLEDCLEAR
  -------         DO            
  X:0565H         SYMBOL        page
  D:0001H         SYMBOL        column
  -------         ENDDO         
  C:6937H         LINE#         170
  C:6937H         LINE#         171
  C:6937H         LINE#         172
  C:693CH         LINE#         173
  C:693CH         LINE#         174
  C:6946H         LINE#         175
  C:6946H         LINE#         176
  C:6948H         LINE#         177
  C:694BH         LINE#         178
  C:6950H         LINE#         179
  C:6956H         LINE#         180
  C:6956H         LINE#         181
  C:695BH         LINE#         182
  C:695EH         LINE#         183
  C:6966H         LINE#         184
  -------         ENDPROC       OLEDCLEAR
  -------         PROC          _OLEDFLUSH
  X:05B5H         SYMBOL        buf
  -------         DO            
  X:05B8H         SYMBOL        page
  X:05B9H         SYMBOL        column
  X:05BAH         SYMBOL        n
  -------         ENDDO         
  C:60D6H         LINE#         190
  C:60E1H         LINE#         191
  C:60E1H         LINE#         192
  C:60E4H         LINE#         193
  C:60E6H         LINE#         194
  C:60EAH         LINE#         196
  C:60EEH         LINE#         197
  C:60F1H         LINE#         198
  C:60FBH         LINE#         199
  C:60FBH         LINE#         200
  C:60FEH         LINE#         201
  C:6101H         LINE#         202
  C:6106H         LINE#         203
  C:610FH         LINE#         204
  C:610FH         LINE#         205
  C:6130H         LINE#         206
  C:6138H         LINE#         207
  C:6140H         LINE#         208
  C:6142H         LINE#         209
  -------         ENDPROC       _OLEDFLUSH
  -------         PROC          _OLEDFLUSHPAGE
  X:0563H         SYMBOL        Page
  X:0564H         SYMBOL        Col
  X:0565H         SYMBOL        buf
  X:0568H         SYMBOL        bufNum
BL51 BANKED LINKER/LOCATER V6.22                                                      06/08/2016  14:58:03  PAGE 43


  -------         DO            
  X:0569H         SYMBOL        column
  -------         ENDDO         
  C:5D0BH         LINE#         216
  C:5D1EH         LINE#         217
  C:5D1EH         LINE#         218
  C:5D23H         LINE#         220
  C:5D52H         LINE#         221
  C:5D55H         LINE#         223
  C:5D58H         LINE#         224
  C:5D5BH         LINE#         226
  C:5D7DH         LINE#         227
  C:5D7DH         LINE#         228
  C:5D96H         LINE#         229
  C:5D9EH         LINE#         231
  C:5DA0H         LINE#         232
  -------         ENDPROC       _OLEDFLUSHPAGE
  -------         PROC          _OLEDWRITEMESSAGE
  X:05D9H         SYMBOL        str
  -------         DO            
  X:05DCH         SYMBOL        charNum
  X:05DDH         SYMBOL        i
  -------         ENDDO         
  C:4401H         LINE#         239
  C:440CH         LINE#         240
  C:440CH         LINE#         241
  C:440FH         LINE#         242
  C:4411H         LINE#         244
  C:4424H         LINE#         246
  C:442EH         LINE#         247
  C:4433H         LINE#         248
  C:4434H         LINE#         250
  C:4436H         LINE#         251
  C:443FH         LINE#         252
  C:4444H         LINE#         253
  C:4452H         LINE#         255
  C:4452H         LINE#         259
  C:4470H         LINE#         260
  C:4482H         LINE#         261
  C:44ADH         LINE#         262
  C:44B5H         LINE#         263
  C:44B5H         LINE#         264
  C:44D3H         LINE#         265
  C:44E5H         LINE#         266
  C:4510H         LINE#         267
  C:4518H         LINE#         268
  C:4518H         LINE#         269
  C:4536H         LINE#         270
  C:4545H         LINE#         271
  C:4570H         LINE#         272
  C:4578H         LINE#         273
  C:4578H         LINE#         274
  C:4578H         LINE#         275
  C:457DH         LINE#         276
  C:4582H         LINE#         277
  C:458EH         LINE#         278
  C:458EH         LINE#         279
BL51 BANKED LINKER/LOCATER V6.22                                                      06/08/2016  14:58:03  PAGE 44


  C:4598H         LINE#         280
  C:459DH         LINE#         281
  C:459EH         LINE#         282
  C:45A0H         LINE#         283
  C:45A9H         LINE#         284
  C:45AEH         LINE#         285
  C:45BCH         LINE#         287
  C:45BCH         LINE#         290
  C:45DAH         LINE#         291
  C:45ECH         LINE#         292
  C:4617H         LINE#         293
  C:461FH         LINE#         294
  C:461FH         LINE#         295
  C:463DH         LINE#         296
  C:464FH         LINE#         297
  C:467AH         LINE#         298
  C:4682H         LINE#         299
  C:4682H         LINE#         300
  C:46A0H         LINE#         301
  C:46AFH         LINE#         302
  C:46DAH         LINE#         303
  C:46E2H         LINE#         304
  C:46E2H         LINE#         305
  C:46E2H         LINE#         306
  C:46E7H         LINE#         307
  C:46ECH         LINE#         308
  C:46F8H         LINE#         309
  C:46F8H         LINE#         310
  C:46FEH         LINE#         311
  C:4708H         LINE#         312
  C:470BH         LINE#         313
  -------         ENDPROC       _OLEDWRITEMESSAGE
  -------         PROC          _OLEDWRITEWORDBYHEX
  X:0563H         SYMBOL        Page
  D:0001H         SYMBOL        Col
  D:0003H         SYMBOL        Data
  -------         DO            
  D:0004H         SYMBOL        i
  X:0564H         SYMBOL        left
  X:0565H         SYMBOL        right
  -------         ENDDO         
  C:547FH         LINE#         321
  C:5487H         LINE#         322
  C:5487H         LINE#         323
  C:5489H         LINE#         324
  C:548FH         LINE#         325
  C:5494H         LINE#         327
  C:549FH         LINE#         328
  C:54A2H         LINE#         330
  C:54AAH         LINE#         331
  C:54AFH         LINE#         332
  C:54B1H         LINE#         333
  C:54C7H         LINE#         334
  C:54CCH         LINE#         335
  C:54CFH         LINE#         336
  C:54D4H         LINE#         337
  C:54D6H         LINE#         338
BL51 BANKED LINKER/LOCATER V6.22                                                      06/08/2016  14:58:03  PAGE 45


  C:54ECH         LINE#         339
  C:54F1H         LINE#         341
  C:54F9H         LINE#         342
  C:5500H         LINE#         343
  C:5502H         LINE#         344
  C:550AH         LINE#         345
  C:5525H         LINE#         347
  C:5544H         LINE#         348
  C:5549H         LINE#         349
  C:554CH         LINE#         350
  C:5553H         LINE#         351
  C:5555H         LINE#         352
  C:556BH         LINE#         353
  C:5570H         LINE#         354
  C:5572H         LINE#         355
  -------         ENDPROC       _OLEDWRITEWORDBYHEX
  -------         PROC          _OLEDWRITEBUFBYHEX
  X:05DEH         SYMBOL        Data
  X:05E1H         SYMBOL        Num
  -------         DO            
  X:05E2H         SYMBOL        dataNum
  -------         ENDDO         
  C:5EBEH         LINE#         363
  C:5ECCH         LINE#         364
  C:5ECCH         LINE#         365
  C:5ECFH         LINE#         366
  C:5EDDH         LINE#         367
  C:5EE0H         LINE#         368
  C:5EECH         LINE#         369
  C:5EF2H         LINE#         370
  C:5F0EH         LINE#         371
  C:5F10H         LINE#         372
  C:5F1AH         LINE#         373
  C:5F3CH         LINE#         375
  C:5F3FH         LINE#         376
  C:5F45H         LINE#         377
  C:5F47H         LINE#         378
  C:5F49H         LINE#         380
  -------         ENDPROC       _OLEDWRITEBUFBYHEX
  -------         PROC          _OLEDWRITEWORDBYHEX57
  D:0002H         SYMBOL        Page
  D:0004H         SYMBOL        Col
  D:0003H         SYMBOL        Data
  -------         DO            
  D:0001H         SYMBOL        i
  X:0618H         SYMBOL        left
  X:0619H         SYMBOL        right
  -------         ENDDO         
  C:5266H         LINE#         389
  C:526AH         LINE#         390
  C:526AH         LINE#         391
  C:526CH         LINE#         392
  C:5274H         LINE#         393
  C:5279H         LINE#         395
  C:5284H         LINE#         396
  C:5287H         LINE#         398
  C:528CH         LINE#         399
BL51 BANKED LINKER/LOCATER V6.22                                                      06/08/2016  14:58:03  PAGE 46


  C:5291H         LINE#         400
  C:52A1H         LINE#         401
  C:52A3H         LINE#         402
  C:52C0H         LINE#         403
  C:52C7H         LINE#         404
  C:52C7H         LINE#         405
  C:52D7H         LINE#         406
  C:52D9H         LINE#         407
  C:52F6H         LINE#         408
  C:52FDH         LINE#         409
  C:52FDH         LINE#         410
  C:5300H         LINE#         412
  C:5305H         LINE#         417
  C:5315H         LINE#         418
  C:5317H         LINE#         419
  C:5334H         LINE#         420
  C:533BH         LINE#         421
  C:533BH         LINE#         422
  C:534BH         LINE#         423
  C:534DH         LINE#         424
  C:536AH         LINE#         425
  C:5371H         LINE#         426
  C:5371H         LINE#         427
  C:5374H         LINE#         428
  C:5379H         LINE#         429
  C:537BH         LINE#         430
  -------         ENDPROC       _OLEDWRITEWORDBYHEX57
  -------         PROC          _OLEDWRITEBUFBYHEX57
  X:05C2H         SYMBOL        str
  X:05C5H         SYMBOL        Num
  -------         DO            
  X:05C6H         SYMBOL        charNum
  X:05C7H         SYMBOL        i
  -------         ENDDO         
  C:5817H         LINE#         437
  C:5825H         LINE#         438
  C:5825H         LINE#         439
  C:5828H         LINE#         440
  C:582AH         LINE#         443
  C:583BH         LINE#         445
  C:584AH         LINE#         446
  C:5850H         LINE#         447
  C:5867H         LINE#         448
  C:5869H         LINE#         449
  C:5873H         LINE#         450
  C:588CH         LINE#         452
  C:588EH         LINE#         453
  C:5898H         LINE#         454
  C:58B1H         LINE#         456
  C:58B3H         LINE#         457
  C:58BDH         LINE#         458
  C:58D9H         LINE#         460
  C:58DBH         LINE#         462
  C:58DEH         LINE#         463
  C:58E8H         LINE#         464
  C:58EEH         LINE#         465
  C:58F1H         LINE#         467
BL51 BANKED LINKER/LOCATER V6.22                                                      06/08/2016  14:58:03  PAGE 47


  C:58F3H         LINE#         495
  -------         ENDPROC       _OLEDWRITEBUFBYHEX57
  -------         PROC          _OLEDWRITEASSIC57
  X:061AH         SYMBOL        Page
  X:061BH         SYMBOL        Col
  D:0001H         SYMBOL        Data
  -------         DO            
  D:0004H         SYMBOL        i
  -------         ENDDO         
  C:6059H         LINE#         504
  C:6065H         LINE#         505
  C:6065H         LINE#         506
  C:6067H         LINE#         508
  C:6073H         LINE#         509
  C:6076H         LINE#         511
  C:607CH         LINE#         512
  C:607EH         LINE#         513
  C:607EH         LINE#         514
  C:6081H         LINE#         515
  C:6083H         LINE#         516
  C:609DH         LINE#         517
  C:60A2H         LINE#         518
  C:60A7H         LINE#         519
  C:60AAH         LINE#         520
  C:60AAH         LINE#         522
  C:60AAH         LINE#         523
  C:60ADH         LINE#         524
  C:60AFH         LINE#         525
  C:60C9H         LINE#         526
  C:60CEH         LINE#         527
  C:60D3H         LINE#         529
  C:60D5H         LINE#         530
  -------         ENDPROC       _OLEDWRITEASSIC57
  -------         PROC          _OLEDASSICFORSTATE
  X:0564H         SYMBOL        Page
  X:0565H         SYMBOL        Col
  D:0001H         SYMBOL        Data
  -------         DO            
  D:0004H         SYMBOL        i
  -------         ENDDO         
  C:5DA1H         LINE#         539
  C:5DADH         LINE#         540
  C:5DADH         LINE#         541
  C:5DAFH         LINE#         543
  C:5DBBH         LINE#         544
  C:5DBEH         LINE#         545
  C:5DC4H         LINE#         546
  C:5DC6H         LINE#         547
  C:5DC9H         LINE#         548
  C:5DCCH         LINE#         549
  C:5DCEH         LINE#         550
  C:5DEFH         LINE#         551
  C:5DF4H         LINE#         552
  C:5DF9H         LINE#         553
  C:5DFCH         LINE#         554
  C:5DFCH         LINE#         556
  C:5DFFH         LINE#         557
BL51 BANKED LINKER/LOCATER V6.22                                                      06/08/2016  14:58:03  PAGE 48


  C:5E02H         LINE#         558
  C:5E04H         LINE#         559
  C:5E25H         LINE#         560
  C:5E2AH         LINE#         561
  C:5E2FH         LINE#         563
  C:5E31H         LINE#         564
  -------         ENDPROC       _OLEDASSICFORSTATE
  -------         PROC          _OLEDWRITEMESSAGE57
  X:05C8H         SYMBOL        str
  -------         DO            
  X:05CBH         SYMBOL        charNum
  X:05CCH         SYMBOL        i
  X:05CDH         SYMBOL        page
  -------         ENDDO         
  C:58F4H         LINE#         572
  C:58FFH         LINE#         573
  C:58FFH         LINE#         574
  C:5902H         LINE#         575
  C:5904H         LINE#         576
  C:5906H         LINE#         578
  C:591AH         LINE#         580
  C:5924H         LINE#         581
  C:592CH         LINE#         582
  C:592EH         LINE#         583
  C:5938H         LINE#         584
  C:5951H         LINE#         586
  C:5953H         LINE#         587
  C:595DH         LINE#         588
  C:5976H         LINE#         590
  C:5978H         LINE#         591
  C:5982H         LINE#         592
  C:599EH         LINE#         594
  C:599EH         LINE#         596
  C:599EH         LINE#         597
  C:59A8H         LINE#         598
  C:59AEH         LINE#         599
  C:59B1H         LINE#         623
  -------         ENDPROC       _OLEDWRITEMESSAGE57
  -------         PROC          _CLEARPAGECOL
  D:0007H         SYMBOL        Page
  D:0004H         SYMBOL        Col
  -------         DO            
  D:0001H         SYMBOL        i
  -------         ENDDO         
  C:69C5H         LINE#         629
  C:69C7H         LINE#         630
  C:69C7H         LINE#         631
  C:69C9H         LINE#         633
  C:69D4H         LINE#         634
  C:69D7H         LINE#         635
  C:69DAH         LINE#         636
  C:69DFH         LINE#         637
  C:69E5H         LINE#         638
  C:69EAH         LINE#         639
  C:69EDH         LINE#         640
  C:69EFH         LINE#         641
  -------         ENDPROC       _CLEARPAGECOL
BL51 BANKED LINKER/LOCATER V6.22                                                      06/08/2016  14:58:03  PAGE 49


  -------         ENDMOD        STC15_OLED

  -------         MODULE        STC15_ADC
  C:0000H         SYMBOL        _ICE_DUMMY_
  D:0080H         PUBLIC        P0
  D:0090H         PUBLIC        P1
  D:00A0H         PUBLIC        P2
  D:00B0H         PUBLIC        P3
  D:00C0H         PUBLIC        P4
  C:5A63H         PUBLIC        adc_isr_key
  D:00C8H         PUBLIC        P5
  B:00A8H.7       PUBLIC        EA
  D:00E8H         PUBLIC        P6
  D:00F8H         PUBLIC        P7
  C:6AD5H         PUBLIC        _dToA256
  B:00A8H.5       PUBLIC        EADC
  D:00A8H         PUBLIC        IE
  D:00BDH         PUBLIC        ADC_RES
  D:00B8H         PUBLIC        IP
  D:00D8H         PUBLIC        CCON
  D:00BCH         PUBLIC        ADC_CONTR
  C:005EH         PUBLIC        _dToA1024
  D:0098H         PUBLIC        SCON
  D:0088H         PUBLIC        TCON
  C:6BF4H         PUBLIC        _read_adc256
  C:6B17H         PUBLIC        _AdcIntInit
  D:009DH         PUBLIC        P1ASF
  D:00BEH         PUBLIC        ADC_RESL
  C:6A1BH         PUBLIC        _read_adc1024
  C:6C0BH         PUBLIC        _Delay
  D:00D0H         PUBLIC        PSW
  -------         PROC          _ADCINTINIT
  D:0007H         SYMBOL        ch
  C:6B17H         LINE#         35
  C:6B17H         LINE#         36
  C:6B17H         LINE#         37
  C:6B24H         LINE#         38
  C:6B27H         LINE#         39
  C:6B2CH         LINE#         40
  C:6B31H         LINE#         42
  C:6B33H         LINE#         43
  C:6B35H         LINE#         44
  -------         ENDPROC       _ADCINTINIT
  -------         PROC          ADC_ISR_KEY
  -------         DO            
  X:056AH         SYMBOL        adcValue1
  D:000EH         SYMBOL        adcValue2
  X:056CH         SYMBOL        keyAdcValue
  C:5B06H         SYMBOL        KEY_END
  -------         ENDDO         
  C:5A63H         LINE#         52
  C:5A70H         LINE#         54
  C:5A77H         LINE#         55
  C:5A79H         LINE#         56
  C:5A7DH         LINE#         58
  C:5A7FH         LINE#         59
  C:5A81H         LINE#         61
BL51 BANKED LINKER/LOCATER V6.22                                                      06/08/2016  14:58:03  PAGE 50


  C:5A84H         LINE#         63
  C:5A91H         LINE#         64
  C:5A94H         LINE#         65
  C:5A9BH         LINE#         67
  C:5AA9H         LINE#         68
  C:5AB8H         LINE#         69
  C:5AC6H         LINE#         70
  C:5AC6H         LINE#         71
  C:5AC6H         LINE#         72
  C:5ACDH         LINE#         73
  C:5AE5H         LINE#         74
  C:5AF9H         LINE#         75
  C:5AF9H         LINE#         76
  C:5AF9H         LINE#         77
  C:5B06H         LINE#         79
  C:5B06H         LINE#         81
  C:5B06H         LINE#         83
  C:5B06H         LINE#         85
  C:5B06H         LINE#         87
  C:5B06H         LINE#         89
  C:5B06H         LINE#         90
  C:5B06H         LINE#         91
  C:5B08H         LINE#         92
  -------         ENDPROC       ADC_ISR_KEY
  -------         PROC          _READ_ADC256
  D:0007H         SYMBOL        ch
  C:6BF4H         LINE#         99
  C:6BF4H         LINE#         100
  C:6BF4H         LINE#         101
  C:6BF7H         LINE#         102
  C:6BFCH         LINE#         103
  C:6BFDH         LINE#         104
  C:6BFEH         LINE#         105
  C:6BFFH         LINE#         106
  C:6C00H         LINE#         107
  C:6C05H         LINE#         109
  C:6C08H         LINE#         111
  C:6C0AH         LINE#         112
  -------         ENDPROC       _READ_ADC256
  -------         PROC          _DTOA256
  D:0007H         SYMBOL        adc_result
  X:05E4H         SYMBOL        base
  C:6AD5H         LINE#         122
  C:6AD5H         LINE#         123
  C:6AD5H         LINE#         124
  C:6AF6H         LINE#         125
  -------         ENDPROC       _DTOA256
  -------         PROC          _READ_ADC1024
  D:0007H         SYMBOL        ch
  -------         DO            
  D:0004H         SYMBOL        output
  -------         ENDDO         
  C:6A1BH         LINE#         134
  C:6A1BH         LINE#         135
  C:6A1BH         LINE#         136
  C:6A1EH         LINE#         137
  C:6A20H         LINE#         138
BL51 BANKED LINKER/LOCATER V6.22                                                      06/08/2016  14:58:03  PAGE 51


  C:6A22H         LINE#         139
  C:6A27H         LINE#         140
  C:6A28H         LINE#         141
  C:6A29H         LINE#         142
  C:6A2AH         LINE#         143
  C:6A2BH         LINE#         144
  C:6A30H         LINE#         146
  C:6A33H         LINE#         148
  C:6A3DH         LINE#         149
  C:6A41H         LINE#         150
  C:6A44H         LINE#         151
  -------         ENDPROC       _READ_ADC1024
  -------         PROC          _DTOA1024
  D:0006H         SYMBOL        adc_result
  X:05D0H         SYMBOL        base
  C:005EH         LINE#         162
  C:005EH         LINE#         163
  C:005EH         LINE#         164
  C:0081H         LINE#         165
  -------         ENDPROC       _DTOA1024
  -------         PROC          _DELAY
  D:0007H         SYMBOL        n
  -------         DO            
  D:0004H         SYMBOL        x
  -------         ENDDO         
  C:6C0BH         LINE#         173
  C:6C0BH         LINE#         174
  C:6C0BH         LINE#         177
  C:6C11H         LINE#         178
  C:6C11H         LINE#         179
  C:6C15H         LINE#         180
  C:6C21H         LINE#         182
  -------         ENDPROC       _DELAY
  -------         ENDMOD        STC15_ADC

  -------         MODULE        STC15_UART
  C:0000H         SYMBOL        _ICE_DUMMY_
  D:0092H         PUBLIC        P1M0
  D:0091H         PUBLIC        P1M1
  D:0080H         PUBLIC        P0
  D:00B2H         PUBLIC        P3M0
  D:0090H         PUBLIC        P1
  D:00B1H         PUBLIC        P3M1
  D:00A0H         PUBLIC        P2
  D:00B0H         PUBLIC        P3
  D:00C0H         PUBLIC        P4
  D:00C8H         PUBLIC        P5
  B:00A8H.7       PUBLIC        EA
  D:00E8H         PUBLIC        P6
  D:00F8H         PUBLIC        P7
  C:680AH         PUBLIC        _SendString
  C:6DF7H         PUBLIC        _SendData
  X:0000H         PUBLIC        uart2_rec_data
  X:00C9H         PUBLIC        uart3_rec_data
  X:00DDH         PUBLIC        uart4_rec_data
  D:00A2H         PUBLIC        P_SW1
  D:00BAH         PUBLIC        P_SW2
BL51 BANKED LINKER/LOCATER V6.22                                                      06/08/2016  14:58:03  PAGE 52


  D:00A8H         PUBLIC        IE
  B:00A8H.4       PUBLIC        ES
  D:00B8H         PUBLIC        IP
  B:0098H.0       PUBLIC        RI
  B:0098H.1       PUBLIC        TI
  C:6C39H         PUBLIC        clear_rec_data
  B:00B8H.4       PUBLIC        PS
  D:00D8H         PUBLIC        CCON
  C:66B4H         PUBLIC        Uart_Isr
  D:0099H         PUBLIC        SBUF
  D:0087H         PUBLIC        PCON
  X:01A5H         PUBLIC        uart2_rec_cnt
  D:0098H         PUBLIC        SCON
  X:01A6H         PUBLIC        uart3_rec_cnt
  C:6996H         PUBLIC        UartInit
  D:0089H         PUBLIC        TMOD
  D:0088H         PUBLIC        TCON
  X:01A7H         PUBLIC        uart4_rec_cnt
  X:01A8H         PUBLIC        rec_data
  C:683DH         PUBLIC        _SendString2
  C:6870H         PUBLIC        _SendString3
  C:6E00H         PUBLIC        _SendData2
  C:68A3H         PUBLIC        _SendString4
  C:6E09H         PUBLIC        _SendData3
  C:6E12H         PUBLIC        _SendData4
  D:00AFH         PUBLIC        IE2
  D:008EH         PUBLIC        AUXR
  B:0020H.0       PUBLIC        busy
  D:00E0H         PUBLIC        ACC
  B:00A8H.3       PUBLIC        ET1
  D:008DH         PUBLIC        TH1
  D:00D6H         PUBLIC        T2H
  D:00D4H         PUBLIC        T3H
  C:66F1H         PUBLIC        Uart2
  D:00D2H         PUBLIC        T4H
  C:6BA9H         PUBLIC        Uart3
  D:008BH         PUBLIC        TL1
  C:672BH         PUBLIC        Uart4
  D:00D7H         PUBLIC        T2L
  D:00D5H         PUBLIC        T3L
  D:00D3H         PUBLIC        T4L
  B:0088H.6       PUBLIC        TR1
  C:6D4CH         PUBLIC        clear_uart2_data
  D:00D1H         PUBLIC        T4T3M
  D:009BH         PUBLIC        S2BUF
  D:00ADH         PUBLIC        S3BUF
  D:0085H         PUBLIC        S4BUF
  D:009AH         PUBLIC        S2CON
  C:6B55H         PUBLIC        Uart2Init
  D:00ACH         PUBLIC        S3CON
  C:6B73H         PUBLIC        Uart3Init
  D:0084H         PUBLIC        S4CON
  C:6B8EH         PUBLIC        Uart4Init
  X:039CH         PUBLIC        rec_num
  B:0020H.1       PUBLIC        busy2
  B:0020H.2       PUBLIC        busy3
  B:0020H.3       PUBLIC        busy4
BL51 BANKED LINKER/LOCATER V6.22                                                      06/08/2016  14:58:03  PAGE 53


  D:00D0H         PUBLIC        PSW
  -------         PROC          UARTINIT
  C:6996H         LINE#         19
  C:6996H         LINE#         20
  C:6996H         LINE#         22
  C:6999H         LINE#         23
  C:699CH         LINE#         25
  C:699EH         LINE#         26
  C:69A0H         LINE#         27
  C:69A2H         LINE#         39
  C:69A5H         LINE#         40
  C:69A8H         LINE#         41
  C:69ABH         LINE#         42
  C:69AEH         LINE#         43
  C:69B1H         LINE#         44
  C:69B4H         LINE#         45
  C:69B7H         LINE#         46
  C:69BAH         LINE#         47
  C:69BCH         LINE#         48
  C:69BEH         LINE#         50
  C:69C0H         LINE#         52
  C:69C2H         LINE#         53
  C:69C4H         LINE#         55
  -------         ENDPROC       UARTINIT
  -------         PROC          _SENDDATA
  D:0007H         SYMBOL        dat
  C:6DF7H         LINE#         62
  C:6DF7H         LINE#         63
  C:6DF7H         LINE#         64
  C:6DFAH         LINE#         65
  C:6DFBH         LINE#         82
  C:6DFDH         LINE#         83
  C:6DFFH         LINE#         84
  -------         ENDPROC       _SENDDATA
  -------         PROC          _SENDSTRING
  X:05FEH         SYMBOL        s
  C:680AH         LINE#         91
  C:6815H         LINE#         92
  C:6815H         LINE#         93
  C:6825H         LINE#         94
  C:6825H         LINE#         95
  C:683AH         LINE#         96
  C:683CH         LINE#         97
  -------         ENDPROC       _SENDSTRING
  -------         PROC          UART_ISR
  C:66B4H         LINE#         101
  C:66C1H         LINE#         103
  C:66C4H         LINE#         104
  C:66C4H         LINE#         105
  C:66C6H         LINE#         106
  C:66DFH         LINE#         109
  C:66DFH         LINE#         110
  C:66E2H         LINE#         111
  C:66E2H         LINE#         112
  C:66E4H         LINE#         113
  C:66E6H         LINE#         114
  C:66E6H         LINE#         115
BL51 BANKED LINKER/LOCATER V6.22                                                      06/08/2016  14:58:03  PAGE 54


  -------         ENDPROC       UART_ISR
  -------         PROC          UART2
  C:66F1H         LINE#         120
  C:66FCH         LINE#         122
  C:6701H         LINE#         123
  C:6701H         LINE#         124
  C:6704H         LINE#         125
  C:6718H         LINE#         127
  C:6718H         LINE#         128
  C:671DH         LINE#         129
  C:671DH         LINE#         130
  C:6720H         LINE#         131
  C:6722H         LINE#         132
  C:6722H         LINE#         133
  -------         ENDPROC       UART2
  -------         PROC          _SENDDATA2
  D:0007H         SYMBOL        dat
  C:6E00H         LINE#         138
  C:6E00H         LINE#         139
  C:6E00H         LINE#         140
  C:6E03H         LINE#         141
  C:6E04H         LINE#         158
  C:6E06H         LINE#         159
  C:6E08H         LINE#         160
  -------         ENDPROC       _SENDDATA2
  -------         PROC          _SENDSTRING2
  X:0601H         SYMBOL        s
  C:683DH         LINE#         168
  C:6848H         LINE#         169
  C:6848H         LINE#         170
  C:6858H         LINE#         171
  C:6858H         LINE#         172
  C:686DH         LINE#         173
  C:686FH         LINE#         174
  -------         ENDPROC       _SENDSTRING2
  -------         PROC          UART2INIT
  C:6B55H         LINE#         177
  C:6B55H         LINE#         178
  C:6B55H         LINE#         179
  C:6B58H         LINE#         180
  C:6B5BH         LINE#         182
  C:6B5EH         LINE#         186
  C:6B61H         LINE#         187
  C:6B64H         LINE#         188
  C:6B67H         LINE#         189
  C:6B6AH         LINE#         190
  C:6B6DH         LINE#         192
  C:6B70H         LINE#         193
  C:6B72H         LINE#         194
  -------         ENDPROC       UART2INIT
  -------         PROC          CLEAR_REC_DATA
  -------         DO            
  D:0006H         SYMBOL        i
  -------         ENDDO         
  C:6C39H         LINE#         197
  C:6C39H         LINE#         198
  C:6C39H         LINE#         200
BL51 BANKED LINKER/LOCATER V6.22                                                      06/08/2016  14:58:03  PAGE 55


  C:6C39H         LINE#         201
  C:6C47H         LINE#         202
  C:6C4EH         LINE#         203
  -------         ENDPROC       CLEAR_REC_DATA
  -------         PROC          CLEAR_UART2_DATA
  -------         DO            
  D:0007H         SYMBOL        i
  -------         ENDDO         
  C:6D4CH         LINE#         205
  C:6D4CH         LINE#         206
  C:6D4CH         LINE#         209
  C:6D4CH         LINE#         210
  C:6D4CH         LINE#         211
  C:6D56H         LINE#         212
  C:6D56H         LINE#         213
  C:6D5BH         LINE#         214
  -------         ENDPROC       CLEAR_UART2_DATA
  -------         PROC          UART3INIT
  C:6B73H         LINE#         218
  C:6B73H         LINE#         219
  C:6B73H         LINE#         221
  C:6B76H         LINE#         231
  C:6B79H         LINE#         232
  C:6B7CH         LINE#         233
  C:6B7FH         LINE#         234
  C:6B82H         LINE#         235
  C:6B85H         LINE#         236
  C:6B88H         LINE#         238
  C:6B8BH         LINE#         239
  C:6B8DH         LINE#         241
  -------         ENDPROC       UART3INIT
  -------         PROC          UART3
  C:6BA9H         LINE#         248
  C:6BABH         LINE#         250
  C:6BB0H         LINE#         251
  C:6BB0H         LINE#         252
  C:6BB3H         LINE#         253
  C:6BB6H         LINE#         255
  C:6BB6H         LINE#         256
  C:6BBBH         LINE#         257
  C:6BBBH         LINE#         258
  C:6BBEH         LINE#         259
  C:6BC0H         LINE#         260
  C:6BC0H         LINE#         261
  -------         ENDPROC       UART3
  -------         PROC          _SENDDATA3
  D:0007H         SYMBOL        dat
  C:6E09H         LINE#         266
  C:6E09H         LINE#         267
  C:6E09H         LINE#         268
  C:6E0CH         LINE#         269
  C:6E0DH         LINE#         286
  C:6E0FH         LINE#         287
  C:6E11H         LINE#         288
  -------         ENDPROC       _SENDDATA3
  -------         PROC          _SENDSTRING3
  X:0604H         SYMBOL        s
BL51 BANKED LINKER/LOCATER V6.22                                                      06/08/2016  14:58:03  PAGE 56


  C:6870H         LINE#         293
  C:687BH         LINE#         294
  C:687BH         LINE#         295
  C:688BH         LINE#         296
  C:688BH         LINE#         297
  C:68A0H         LINE#         298
  C:68A2H         LINE#         299
  -------         ENDPROC       _SENDSTRING3
  -------         PROC          UART4INIT
  C:6B8EH         LINE#         305
  C:6B8EH         LINE#         306
  C:6B8EH         LINE#         309
  C:6B91H         LINE#         318
  C:6B94H         LINE#         319
  C:6B97H         LINE#         320
  C:6B9AH         LINE#         321
  C:6B9DH         LINE#         322
  C:6BA0H         LINE#         323
  C:6BA3H         LINE#         325
  C:6BA6H         LINE#         326
  C:6BA8H         LINE#         327
  -------         ENDPROC       UART4INIT
  -------         PROC          UART4
  C:672BH         LINE#         332
  C:6736H         LINE#         334
  C:673BH         LINE#         335
  C:673BH         LINE#         336
  C:673EH         LINE#         337
  C:6752H         LINE#         339
  C:6752H         LINE#         340
  C:6757H         LINE#         341
  C:6757H         LINE#         342
  C:675AH         LINE#         343
  C:675CH         LINE#         344
  C:675CH         LINE#         345
  -------         ENDPROC       UART4
  -------         PROC          _SENDDATA4
  D:0007H         SYMBOL        dat
  C:6E12H         LINE#         350
  C:6E12H         LINE#         351
  C:6E12H         LINE#         352
  C:6E15H         LINE#         353
  C:6E16H         LINE#         370
  C:6E18H         LINE#         371
  C:6E1AH         LINE#         372
  -------         ENDPROC       _SENDDATA4
  -------         PROC          _SENDSTRING4
  X:0607H         SYMBOL        s
  C:68A3H         LINE#         377
  C:68AEH         LINE#         378
  C:68AEH         LINE#         380
  C:68BEH         LINE#         381
  C:68BEH         LINE#         382
  C:68D3H         LINE#         383
  C:68D5H         LINE#         385
  -------         ENDPROC       _SENDSTRING4
  -------         ENDMOD        STC15_UART
BL51 BANKED LINKER/LOCATER V6.22                                                      06/08/2016  14:58:03  PAGE 57



  -------         MODULE        STC15_FLASH
  C:0000H         SYMBOL        _ICE_DUMMY_
  D:0080H         PUBLIC        P0
  D:0090H         PUBLIC        P1
  D:00A0H         PUBLIC        P2
  D:00B0H         PUBLIC        P3
  C:6C64H         PUBLIC        _IapEraseSector
  D:00C0H         PUBLIC        P4
  D:00C8H         PUBLIC        P5
  D:00E8H         PUBLIC        P6
  D:00F8H         PUBLIC        P7
  D:00A8H         PUBLIC        IE
  C:6BC3H         PUBLIC        _IapProgramByte
  D:00C5H         PUBLIC        IAP_CMD
  C:5573H         PUBLIC        _sequential_write_flash_in_one_sector
  D:00B8H         PUBLIC        IP
  C:0036H         PUBLIC        IapIdle
  D:00C3H         PUBLIC        IAP_ADDRH
  D:00D8H         PUBLIC        CCON
  D:00C4H         PUBLIC        IAP_ADDRL
  B:0020H.4       PUBLIC        REND
  B:0020H.5       PUBLIC        TEND
  X:05ADH         PUBLIC        RDAT
  X:05AEH         PUBLIC        TDAT
  X:05AFH         PUBLIC        RBUF
  B:0020H.6       PUBLIC        RING
  C:6BDCH         PUBLIC        _IapReadByte
  X:05B0H         PUBLIC        RBIT
  X:05B1H         PUBLIC        TBUF
  B:0020H.7       PUBLIC        TING
  X:05B2H         PUBLIC        TBIT
  D:0098H         PUBLIC        SCON
  D:0088H         PUBLIC        TCON
  X:05B3H         PUBLIC        RCNT
  X:05B4H         PUBLIC        TCNT
  D:00C7H         PUBLIC        IAP_CONTR
  D:00C2H         PUBLIC        IAP_DATA
  I:0022H         PUBLIC        protect_buffer
  D:00C6H         PUBLIC        IAP_TRIG
  C:4E67H         PUBLIC        _write_flash_with_protect_in_one_sector
  D:00D0H         PUBLIC        PSW
  -------         PROC          IAPIDLE
  C:0036H         LINE#         47
  C:0036H         LINE#         48
  C:0036H         LINE#         49
  C:0039H         LINE#         50
  C:003BH         LINE#         51
  C:003DH         LINE#         52
  C:0040H         LINE#         53
  C:0042H         LINE#         54
  -------         ENDPROC       IAPIDLE
  -------         PROC          _IAPREADBYTE
  D:0006H         SYMBOL        addr
  -------         DO            
  D:0007H         SYMBOL        dat
  -------         ENDDO         
BL51 BANKED LINKER/LOCATER V6.22                                                      06/08/2016  14:58:03  PAGE 58


  C:6BDCH         LINE#         59
  C:6BDCH         LINE#         60
  C:6BDCH         LINE#         63
  C:6BDFH         LINE#         64
  C:6BE2H         LINE#         65
  C:6BE4H         LINE#         66
  C:6BE7H         LINE#         67
  C:6BEAH         LINE#         68
  C:6BEDH         LINE#         69
  C:6BEEH         LINE#         70
  C:6BF0H         LINE#         71
  C:6BF3H         LINE#         73
  C:6BF3H         LINE#         74
  -------         ENDPROC       _IAPREADBYTE
  -------         PROC          _IAPPROGRAMBYTE
  D:0006H         SYMBOL        addr
  D:0005H         SYMBOL        dat
  C:6BC3H         LINE#         79
  C:6BC3H         LINE#         80
  C:6BC3H         LINE#         81
  C:6BC6H         LINE#         82
  C:6BC9H         LINE#         83
  C:6BCBH         LINE#         84
  C:6BCEH         LINE#         85
  C:6BD2H         LINE#         86
  C:6BD5H         LINE#         87
  C:6BD8H         LINE#         88
  C:6BD9H         LINE#         89
  -------         ENDPROC       _IAPPROGRAMBYTE
  -------         PROC          _IAPERASESECTOR
  D:0006H         SYMBOL        addr
  C:6C64H         LINE#         95
  C:6C64H         LINE#         96
  C:6C64H         LINE#         97
  C:6C67H         LINE#         98
  C:6C6AH         LINE#         99
  C:6C6CH         LINE#         100
  C:6C6FH         LINE#         101
  C:6C72H         LINE#         102
  C:6C75H         LINE#         103
  C:6C76H         LINE#         104
  -------         ENDPROC       _IAPERASESECTOR
  -------         PROC          _SEQUENTIAL_WRITE_FLASH_IN_ONE_SECTOR
  X:0597H         SYMBOL        begin_addr
  X:0599H         SYMBOL        counter
  X:059BH         SYMBOL        array
  -------         DO            
  X:059EH         SYMBOL        i
  D:0006H         SYMBOL        in_sector_begin_addr
  X:05A0H         SYMBOL        sector_addr
  -------         ENDDO         
  C:5573H         LINE#         109
  C:558EH         LINE#         110
  C:558EH         LINE#         111
  C:5595H         LINE#         112
  C:5596H         LINE#         113
  C:559AH         LINE#         116
BL51 BANKED LINKER/LOCATER V6.22                                                      06/08/2016  14:58:03  PAGE 59


  C:55A3H         LINE#         117
  C:55A4H         LINE#         118
  C:55B2H         LINE#         119
  C:55C7H         LINE#         120
  C:55CAH         LINE#         123
  C:55D1H         LINE#         125
  C:55EEH         LINE#         126
  C:55EEH         LINE#         128
  C:560CH         LINE#         130
  C:5631H         LINE#         131
  C:5631H         LINE#         132
  C:5634H         LINE#         133
  C:5637H         LINE#         134
  C:5637H         LINE#         135
  C:5645H         LINE#         136
  C:5655H         LINE#         137
  C:5658H         LINE#         138
  C:565AH         LINE#         139
  -------         ENDPROC       _SEQUENTIAL_WRITE_FLASH_IN_ONE_SECTOR
  -------         PROC          _WRITE_FLASH_WITH_PROTECT_IN_ONE_SECTOR
  X:0588H         SYMBOL        begin_addr
  X:058AH         SYMBOL        counter
  X:058CH         SYMBOL        array
  -------         DO            
  X:058FH         SYMBOL        i
  X:0591H         SYMBOL        in_sector_begin_addr
  X:0593H         SYMBOL        sector_addr
  X:0595H         SYMBOL        byte_addr
  -------         ENDDO         
  C:4E67H         LINE#         143
  C:4E82H         LINE#         144
  C:4E82H         LINE#         145
  C:4E89H         LINE#         146
  C:4E8DH         LINE#         147
  C:4E91H         LINE#         148
  C:4E95H         LINE#         151
  C:4E9EH         LINE#         152
  C:4EA1H         LINE#         153
  C:4EB6H         LINE#         155
  C:4ECBH         LINE#         156
  C:4ECEH         LINE#         159
  C:4EDBH         LINE#         160
  C:4EE1H         LINE#         162
  C:4EE7H         LINE#         163
  C:4EE7H         LINE#         164
  C:4F01H         LINE#         165
  C:4F1BH         LINE#         168
  C:4F38H         LINE#         169
  C:4F38H         LINE#         170
  C:4F5CH         LINE#         171
  C:4F6CH         LINE#         174
  C:4F77H         LINE#         177
  C:4F84H         LINE#         178
  C:4F9BH         LINE#         179
  C:4F9BH         LINE#         181
  C:4FACH         LINE#         183
  C:4FC3H         LINE#         184
BL51 BANKED LINKER/LOCATER V6.22                                                      06/08/2016  14:58:03  PAGE 60


  C:4FC3H         LINE#         185
  C:4FC6H         LINE#         186
  C:4FC9H         LINE#         187
  C:4FC9H         LINE#         188
  C:4FD7H         LINE#         189
  C:4FE7H         LINE#         190
  C:4FEAH         LINE#         191
  C:4FECH         LINE#         192
  -------         ENDPROC       _WRITE_FLASH_WITH_PROTECT_IN_ONE_SECTOR
  -------         ENDMOD        STC15_FLASH

  -------         MODULE        STC15_PWM
  C:0000H         SYMBOL        _ICE_DUMMY_
  D:0093H         PUBLIC        P0M1
  D:0080H         PUBLIC        P0
  D:0095H         PUBLIC        P2M1
  D:0090H         PUBLIC        P1
  D:00B4H         PUBLIC        P4M0
  D:00A0H         PUBLIC        P2
  D:00CAH         PUBLIC        P5M0
  D:00B3H         PUBLIC        P4M1
  D:00B0H         PUBLIC        P3
  D:00C9H         PUBLIC        P5M1
  D:00C0H         PUBLIC        P4
  D:00C8H         PUBLIC        P5
  D:00E8H         PUBLIC        P6
  D:00F8H         PUBLIC        P7
  C:6B36H         PUBLIC        _GetPwm2
  D:00F5H         PUBLIC        PWMCR
  D:00F9H         PUBLIC        CH
  C:64C9H         PUBLIC        _GetPwm4
  D:00A2H         PUBLIC        P_SW1
  X:05EDH         PUBLIC        pwm2_state
  C:6514H         PUBLIC        _GetPwm5
  D:00A8H         PUBLIC        IE
  D:00E9H         PUBLIC        CL
  D:00FAH         PUBLIC        CCAP0H
  D:00FBH         PUBLIC        CCAP1H
  D:00FCH         PUBLIC        CCAP2H
  D:00EAH         PUBLIC        CCAP0L
  B:00D8H.6       PUBLIC        CR
  D:00EBH         PUBLIC        CCAP1L
  D:00DAH         PUBLIC        CCAPM0
  X:05EEH         PUBLIC        OLED_BRT_DUTY
  D:00ECH         PUBLIC        CCAP2L
  D:00DBH         PUBLIC        CCAPM1
  D:00DCH         PUBLIC        CCAPM2
  D:00B8H         PUBLIC        IP
  C:59B2H         PUBLIC        _OledBrtAdjust
  D:00D9H         PUBLIC        CMOD
  D:00D8H         PUBLIC        CCON
  D:00BAH         PUBLIC        PIN_SW2
  B:00A0H.0       PUBLIC        P20
  D:0098H         PUBLIC        SCON
  D:0088H         PUBLIC        TCON
  C:5F4AH         PUBLIC        _GetPwmBRT
  D:00F1H         PUBLIC        PWMCFG
BL51 BANKED LINKER/LOCATER V6.22                                                      06/08/2016  14:58:03  PAGE 61


  D:00E0H         PUBLIC        ACC
  X:05EFH         PUBLIC        downTime
  X:05F0H         PUBLIC        key_state
  D:00D4H         PUBLIC        T3H
  D:00D5H         PUBLIC        T3L
  C:67D4H         PUBLIC        GetPwm
  D:00F2H         PUBLIC        PCA_PWM0
  D:00F3H         PUBLIC        PCA_PWM1
  D:00F4H         PUBLIC        PCA_PWM2
  C:5BC0H         PUBLIC        t3int
  C:565BH         PUBLIC        _GetPwmBZ
  X:05F1H         PUBLIC        upTime
  D:00D0H         PUBLIC        PSW
  D:0094H         PUBLIC        P0M0
  -------         PROC          GETPWM
  C:67D4H         LINE#         22
  C:67D4H         LINE#         23
  C:67D4H         LINE#         24
  C:67D6H         LINE#         25
  C:67D8H         LINE#         26
  C:67DAH         LINE#         38
  C:67DDH         LINE#         42
  C:67DFH         LINE#         43
  C:67E1H         LINE#         44
  C:67E4H         LINE#         46
  C:67E6H         LINE#         47
  C:67ECH         LINE#         48
  C:67EFH         LINE#         50
  C:67F2H         LINE#         51
  C:67F8H         LINE#         52
  C:67FBH         LINE#         54
  C:67FEH         LINE#         55
  C:6804H         LINE#         56
  C:6807H         LINE#         58
  C:6809H         LINE#         59
  -------         ENDPROC       GETPWM
  -------         PROC          _GETPWM4
  D:0007H         SYMBOL        DUTY
  C:64C9H         LINE#         76
  C:64C9H         LINE#         77
  C:64C9H         LINE#         79
  C:64CCH         LINE#         80
  C:64CEH         LINE#         82
  C:64D1H         LINE#         83
  C:64D3H         LINE#         84
  C:64D7H         LINE#         85
  C:64E1H         LINE#         86
  C:64E8H         LINE#         87
  C:6505H         LINE#         89
  C:6509H         LINE#         92
  C:650CH         LINE#         93
  C:650FH         LINE#         94
  C:6512H         LINE#         96
  -------         ENDPROC       _GETPWM4
  -------         PROC          _GETPWM5
  D:0007H         SYMBOL        DUTY
  C:6514H         LINE#         106
BL51 BANKED LINKER/LOCATER V6.22                                                      06/08/2016  14:58:03  PAGE 62


  C:6514H         LINE#         107
  C:6514H         LINE#         108
  C:6517H         LINE#         109
  C:6519H         LINE#         111
  C:651CH         LINE#         112
  C:651EH         LINE#         113
  C:6522H         LINE#         114
  C:652CH         LINE#         115
  C:6533H         LINE#         116
  C:6550H         LINE#         118
  C:6554H         LINE#         120
  C:6557H         LINE#         121
  C:655AH         LINE#         122
  C:655DH         LINE#         123
  -------         ENDPROC       _GETPWM5
  -------         PROC          _GETPWM2
  D:0007H         SYMBOL        DUTY
  -------         DO            
  D:0006H         SYMBOL        upTime
  X:061CH         SYMBOL        downTime
  -------         ENDDO         
  C:6B36H         LINE#         132
  C:6B36H         LINE#         133
  C:6B36H         LINE#         135
  C:6B3EH         LINE#         136
  C:6B4DH         LINE#         138
  C:6B52H         LINE#         139
  -------         ENDPROC       _GETPWM2
  -------         PROC          T3INT
  C:5BC0H         LINE#         143
  C:5BDDH         LINE#         145
  C:5BE3H         LINE#         146
  C:5BF0H         LINE#         147
  C:5C11H         LINE#         148
  C:5C13H         LINE#         149
  C:5C19H         LINE#         150
  C:5C1BH         LINE#         151
  C:5C1BH         LINE#         152
  C:5C28H         LINE#         153
  C:5C49H         LINE#         154
  C:5C4BH         LINE#         155
  C:5C50H         LINE#         156
  C:5C50H         LINE#         157
  -------         ENDPROC       T3INT
  -------         PROC          _GETPWMBZ
  D:0003H         SYMBOL        FRE
  X:0563H         SYMBOL        DUTY
  -------         DO            
  X:0565H         SYMBOL        cycle
  -------         ENDDO         
  C:565BH         LINE#         175
  C:5665H         LINE#         176
  C:5665H         LINE#         177
  C:566DH         LINE#         178
  C:567EH         LINE#         179
  C:567EH         LINE#         180
  C:5688H         LINE#         181
BL51 BANKED LINKER/LOCATER V6.22                                                      06/08/2016  14:58:03  PAGE 63


  C:568AH         LINE#         182
  C:568AH         LINE#         183
  C:5694H         LINE#         184
  C:5696H         LINE#         185
  C:5696H         LINE#         186
  C:56A0H         LINE#         187
  C:56A2H         LINE#         188
  C:56A2H         LINE#         191
  C:56A2H         LINE#         192
  C:56ACH         LINE#         193
  C:56AEH         LINE#         194
  C:56AEH         LINE#         195
  C:56B8H         LINE#         196
  C:56B8H         LINE#         197
  C:56B8H         LINE#         198
  C:56BBH         LINE#         199
  C:56BEH         LINE#         201
  C:56C1H         LINE#         202
  C:56C4H         LINE#         203
  C:56CAH         LINE#         204
  C:56E3H         LINE#         205
  C:56EAH         LINE#         206
  C:572BH         LINE#         208
  C:572FH         LINE#         211
  C:5732H         LINE#         212
  C:5735H         LINE#         213
  C:5738H         LINE#         215
  -------         ENDPROC       _GETPWMBZ
  -------         PROC          _GETPWMBRT
  X:05E8H         SYMBOL        DUTY
  -------         DO            
  X:05E9H         SYMBOL        cycle
  -------         ENDDO         
  C:5F4AH         LINE#         223
  C:5F4FH         LINE#         224
  C:5F4FH         LINE#         225
  C:5F57H         LINE#         226
  C:5F5AH         LINE#         227
  C:5F5DH         LINE#         230
  C:5F60H         LINE#         231
  C:5F63H         LINE#         232
  C:5F69H         LINE#         233
  C:5F82H         LINE#         234
  C:5F89H         LINE#         235
  C:5FC7H         LINE#         238
  C:5FCAH         LINE#         240
  C:5FCDH         LINE#         241
  C:5FD0H         LINE#         242
  C:5FD3H         LINE#         244
  -------         ENDPROC       _GETPWMBRT
  -------         PROC          _OLEDBRTADJUST
  X:0622H         SYMBOL        way
  C:59B2H         LINE#         252
  C:59B7H         LINE#         253
  C:59B7H         LINE#         254
  C:59D9H         LINE#         255
  C:59D9H         LINE#         256
BL51 BANKED LINKER/LOCATER V6.22                                                      06/08/2016  14:58:03  PAGE 64


  C:59E4H         LINE#         257
  C:59E4H         LINE#         258
  C:59E4H         LINE#         259
  C:59E6H         LINE#         260
  C:59E6H         LINE#         262
  C:59E6H         LINE#         263
  C:59E6H         LINE#         264
  C:59EDH         LINE#         265
  C:59EDH         LINE#         266
  C:59EDH         LINE#         267
  C:59EFH         LINE#         268
  C:59EFH         LINE#         269
  C:59F6H         LINE#         270
  C:59FBH         LINE#         271
  C:59FBH         LINE#         272
  C:59FDH         LINE#         273
  C:59FDH         LINE#         275
  C:59FDH         LINE#         276
  C:59FDH         LINE#         277
  C:5A04H         LINE#         278
  C:5A09H         LINE#         279
  C:5A09H         LINE#         280
  C:5A0BH         LINE#         281
  C:5A0BH         LINE#         282
  C:5A12H         LINE#         283
  C:5A17H         LINE#         284
  C:5A17H         LINE#         285
  C:5A19H         LINE#         286
  C:5A19H         LINE#         288
  C:5A19H         LINE#         289
  C:5A19H         LINE#         290
  C:5A20H         LINE#         291
  C:5A25H         LINE#         292
  C:5A25H         LINE#         293
  C:5A27H         LINE#         294
  C:5A27H         LINE#         295
  C:5A2EH         LINE#         296
  C:5A33H         LINE#         297
  C:5A33H         LINE#         298
  C:5A35H         LINE#         299
  C:5A35H         LINE#         301
  C:5A35H         LINE#         302
  C:5A35H         LINE#         303
  C:5A3CH         LINE#         304
  C:5A41H         LINE#         305
  C:5A41H         LINE#         306
  C:5A43H         LINE#         307
  C:5A43H         LINE#         308
  C:5A4AH         LINE#         309
  C:5A4FH         LINE#         310
  C:5A4FH         LINE#         311
  C:5A51H         LINE#         312
  C:5A51H         LINE#         314
  C:5A51H         LINE#         315
  C:5A51H         LINE#         316
  C:5A58H         LINE#         317
  C:5A5EH         LINE#         318
BL51 BANKED LINKER/LOCATER V6.22                                                      06/08/2016  14:58:03  PAGE 65


  C:5A62H         LINE#         319
  C:5A62H         LINE#         320
  C:5A62H         LINE#         322
  C:5A62H         LINE#         323
  C:5A62H         LINE#         324
  C:5A62H         LINE#         325
  C:5A62H         LINE#         326
  -------         ENDPROC       _OLEDBRTADJUST
  -------         ENDMOD        STC15_PWM

  -------         MODULE        STC15_TIME
  C:0000H         SYMBOL        _ICE_DUMMY_
  D:0080H         PUBLIC        P0
  D:0090H         PUBLIC        P1
  D:00A0H         PUBLIC        P2
  D:00B0H         PUBLIC        P3
  D:00C0H         PUBLIC        P4
  D:00C8H         PUBLIC        P5
  D:00E8H         PUBLIC        P6
  D:00F8H         PUBLIC        P7
  D:00A8H         PUBLIC        IE
  D:00B8H         PUBLIC        IP
  D:00D8H         PUBLIC        CCON
  D:0098H         PUBLIC        SCON
  D:0089H         PUBLIC        TMOD
  D:0088H         PUBLIC        TCON
  D:008EH         PUBLIC        AUXR
  B:0088H.5       PUBLIC        TF0
  C:63D8H         PUBLIC        _Timer0Init
  D:008CH         PUBLIC        TH0
  D:008AH         PUBLIC        TL0
  B:0088H.4       PUBLIC        TR0
  D:00D0H         PUBLIC        PSW
  -------         PROC          _TIMER0INIT
  X:061EH         SYMBOL        time
  C:63D8H         LINE#         8
  C:63E0H         LINE#         9
  C:63E0H         LINE#         11
  C:63E3H         LINE#         12
  C:63E6H         LINE#         13
  C:63FEH         LINE#         14
  C:6426H         LINE#         15
  C:6428H         LINE#         16
  C:642AH         LINE#         17
  -------         ENDPROC       _TIMER0INIT
  -------         ENDMOD        STC15_TIME

  -------         MODULE        STC15_SPI
  C:0000H         SYMBOL        _ICE_DUMMY_
  D:0080H         PUBLIC        P0
  D:0090H         PUBLIC        P1
  D:00A0H         PUBLIC        P2
  D:00B0H         PUBLIC        P3
  D:00C0H         PUBLIC        P4
  D:00C8H         PUBLIC        P5
  D:00E8H         PUBLIC        P6
  D:00F8H         PUBLIC        P7
BL51 BANKED LINKER/LOCATER V6.22                                                      06/08/2016  14:58:03  PAGE 66


  D:00CEH         PUBLIC        SPCTL
  D:00A2H         PUBLIC        P_SW1
  D:00A8H         PUBLIC        IE
  B:0090H.1       PUBLIC        SPISS
  D:00B8H         PUBLIC        IP
  D:00D8H         PUBLIC        CCON
  D:0098H         PUBLIC        SCON
  D:0088H         PUBLIC        TCON
  C:6C8CH         PUBLIC        InitSpi
  D:00E0H         PUBLIC        ACC
  D:00CDH         PUBLIC        SPSTAT
  D:00D0H         PUBLIC        PSW
  C:6E3EH         PUBLIC        spi_isr
  D:00CFH         PUBLIC        SPDAT
  -------         PROC          INITSPI
  C:6C8CH         LINE#         13
  C:6C8CH         LINE#         14
  C:6C8CH         LINE#         19
  C:6C8EH         LINE#         20
  C:6C90H         LINE#         21
  C:6C92H         LINE#         22
  C:6C94H         LINE#         30
  C:6C97H         LINE#         31
  C:6C9AH         LINE#         33
  C:6C9DH         LINE#         38
  -------         ENDPROC       INITSPI
  -------         PROC          SPI_ISR
  C:6E3EH         LINE#         43
  C:6E3EH         LINE#         45
  C:6E41H         LINE#         47
  C:6E43H         LINE#         52
  -------         ENDPROC       SPI_ISR
  -------         ENDMOD        STC15_SPI

  -------         MODULE        STC15_INT
  C:0000H         SYMBOL        _ICE_DUMMY_
  D:0080H         PUBLIC        P0
  D:0090H         PUBLIC        P1
  D:00A0H         PUBLIC        P2
  D:00B0H         PUBLIC        P3
  D:00C0H         PUBLIC        P4
  D:00C8H         PUBLIC        P5
  B:00A8H.7       PUBLIC        EA
  D:00E8H         PUBLIC        P6
  D:00F8H         PUBLIC        P7
  D:00A8H         PUBLIC        IE
  X:05F7H         PUBLIC        temp_t0_int_cnt
  X:05F9H         PUBLIC        vcc_t0_int_cnt
  D:00B8H         PUBLIC        IP
  B:00B0H.2       PUBLIC        INT0
  B:00B0H.3       PUBLIC        INT1
  D:00D8H         PUBLIC        CCON
  C:655EH         PUBLIC        freshStateLine
  B:00A8H.6       PUBLIC        ELVD
  D:0087H         PUBLIC        PCON
  D:0098H         PUBLIC        SCON
  D:0089H         PUBLIC        TMOD
BL51 BANKED LINKER/LOCATER V6.22                                                      06/08/2016  14:58:03  PAGE 67


  D:0088H         PUBLIC        TCON
  C:000EH         PUBLIC        LVD_ISR
  D:00AFH         PUBLIC        IE2
  D:008EH         PUBLIC        AUXR
  B:00A8H.1       PUBLIC        ET0
  B:0088H.5       PUBLIC        TF0
  D:008CH         PUBLIC        TH0
  B:0088H.0       PUBLIC        IT0
  B:00A8H.0       PUBLIC        EX0
  B:0088H.2       PUBLIC        IT1
  B:00A8H.2       PUBLIC        EX1
  D:00D4H         PUBLIC        T3H
  D:008AH         PUBLIC        TL0
  D:00D5H         PUBLIC        T3L
  B:00B8H.1       PUBLIC        PT0
  B:0088H.4       PUBLIC        TR0
  C:0012H         PUBLIC        exint0
  C:0026H         PUBLIC        exint1
  C:0027H         PUBLIC        exint2
  D:00D1H         PUBLIC        T4T3M
  C:0028H         PUBLIC        exint3
  C:0029H         PUBLIC        exint4
  C:6C22H         PUBLIC        t0IntInit
  C:6C9EH         PUBLIC        t3IntInit
  C:6E36H         PUBLIC        LvdIntInit
  C:6383H         PUBLIC        t0int
  C:6E1BH         PUBLIC        Int0Init
  C:6E24H         PUBLIC        Int1Init
  C:6E44H         PUBLIC        Int2Init
  C:6E4AH         PUBLIC        Int3Init
  D:008FH         PUBLIC        INT_CLKO
  C:6E50H         PUBLIC        Int4Init
  D:00D0H         PUBLIC        PSW
  -------         PROC          T0INT
  -------         DO            
  X:056EH         SYMBOL        batTmp
  X:056FH         SYMBOL        tempTmp
  -------         ENDDO         
  C:6383H         LINE#         7
  C:639AH         LINE#         9
  C:639FH         LINE#         10
  C:63A7H         LINE#         15
  C:63B5H         LINE#         16
  C:63C3H         LINE#         19
  -------         ENDPROC       T0INT
  -------         PROC          T0INTINIT
  C:6C22H         LINE#         21
  C:6C22H         LINE#         22
  C:6C22H         LINE#         24
  C:6C25H         LINE#         25
  C:6C28H         LINE#         27
  C:6C2AH         LINE#         28
  C:6C2DH         LINE#         29
  C:6C30H         LINE#         30
  C:6C32H         LINE#         31
  C:6C34H         LINE#         32
  C:6C36H         LINE#         34
BL51 BANKED LINKER/LOCATER V6.22                                                      06/08/2016  14:58:03  PAGE 68


  C:6C38H         LINE#         35
  -------         ENDPROC       T0INTINIT
  -------         PROC          FRESHSTATELINE
  C:655EH         LINE#         37
  C:655EH         LINE#         38
  C:655EH         LINE#         40
  C:656DH         LINE#         41
  C:656DH         LINE#         43
  C:6576H         LINE#         51
  C:6580H         LINE#         53
  C:6587H         LINE#         54
  C:6587H         LINE#         55
  C:6596H         LINE#         56
  C:6596H         LINE#         57
  C:659EH         LINE#         63
  C:65A0H         LINE#         65
  C:65A6H         LINE#         66
  C:65A6H         LINE#         67
  -------         ENDPROC       FRESHSTATELINE
  -------         PROC          T3INTINIT
  C:6C9EH         LINE#         72
  C:6C9EH         LINE#         73
  C:6C9EH         LINE#         75
  C:6CA1H         LINE#         77
  C:6CA4H         LINE#         78
  C:6CA7H         LINE#         80
  C:6CAAH         LINE#         81
  C:6CADH         LINE#         83
  C:6CAFH         LINE#         85
  -------         ENDPROC       T3INTINIT
  -------         PROC          EXINT0
  C:0012H         LINE#         96
  C:0012H         LINE#         99
  -------         ENDPROC       EXINT0
  -------         PROC          INT0INIT
  C:6E1BH         LINE#         103
  C:6E1BH         LINE#         104
  C:6E1BH         LINE#         105
  C:6E1DH         LINE#         106
  C:6E1FH         LINE#         107
  C:6E21H         LINE#         108
  C:6E23H         LINE#         109
  -------         ENDPROC       INT0INIT
  -------         PROC          EXINT1
  C:0026H         LINE#         114
  C:0026H         LINE#         118
  -------         ENDPROC       EXINT1
  -------         PROC          INT1INIT
  C:6E24H         LINE#         122
  C:6E24H         LINE#         123
  C:6E24H         LINE#         124
  C:6E26H         LINE#         125
  C:6E28H         LINE#         126
  C:6E2AH         LINE#         127
  C:6E2CH         LINE#         129
  -------         ENDPROC       INT1INIT
  -------         PROC          EXINT2
BL51 BANKED LINKER/LOCATER V6.22                                                      06/08/2016  14:58:03  PAGE 69


  C:0027H         LINE#         134
  C:0027H         LINE#         140
  -------         ENDPROC       EXINT2
  -------         PROC          INT2INIT
  C:6E44H         LINE#         142
  C:6E44H         LINE#         143
  C:6E44H         LINE#         144
  C:6E47H         LINE#         145
  C:6E49H         LINE#         147
  -------         ENDPROC       INT2INIT
  -------         PROC          EXINT3
  C:0028H         LINE#         152
  C:0028H         LINE#         158
  -------         ENDPROC       EXINT3
  -------         PROC          INT3INIT
  C:6E4AH         LINE#         160
  C:6E4AH         LINE#         161
  C:6E4AH         LINE#         162
  C:6E4DH         LINE#         163
  C:6E4FH         LINE#         164
  -------         ENDPROC       INT3INIT
  -------         PROC          EXINT4
  C:0029H         LINE#         168
  C:0029H         LINE#         174
  -------         ENDPROC       EXINT4
  -------         PROC          INT4INIT
  C:6E50H         LINE#         176
  C:6E50H         LINE#         177
  C:6E50H         LINE#         178
  C:6E53H         LINE#         179
  C:6E55H         LINE#         181
  -------         ENDPROC       INT4INIT
  -------         PROC          LVD_ISR
  C:000EH         LINE#         186
  C:000EH         LINE#         189
  C:0011H         LINE#         190
  -------         ENDPROC       LVD_ISR
  -------         PROC          LVDINTINIT
  C:6E36H         LINE#         192
  C:6E36H         LINE#         193
  C:6E36H         LINE#         194
  C:6E39H         LINE#         195
  C:6E3BH         LINE#         196
  C:6E3DH         LINE#         198
  -------         ENDPROC       LVDINTINIT
  -------         ENDMOD        STC15_INT

  -------         MODULE        BEEP
  C:0000H         SYMBOL        _ICE_DUMMY_
  D:0080H         PUBLIC        P0
  D:0090H         PUBLIC        P1
  D:00A0H         PUBLIC        P2
  D:00B0H         PUBLIC        P3
  D:00C0H         PUBLIC        P4
  D:00C8H         PUBLIC        P5
  D:00E8H         PUBLIC        P6
  D:00F8H         PUBLIC        P7
BL51 BANKED LINKER/LOCATER V6.22                                                      06/08/2016  14:58:03  PAGE 70


  D:00F5H         PUBLIC        PWMCR
  D:00A8H         PUBLIC        IE
  C:6E2DH         PUBLIC        _warningBZ
  C:6CE6H         PUBLIC        lowBattery50msBZ
  D:00B8H         PUBLIC        IP
  D:00D8H         PUBLIC        CCON
  C:6CD4H         PUBLIC        btLink3sBZ
  C:6CC2H         PUBLIC        beep200msBZ
  D:0098H         PUBLIC        SCON
  D:0088H         PUBLIC        TCON
  B:0080H.6       PUBLIC        P06
  C:6CB0H         PUBLIC        click10msBZ
  D:00D0H         PUBLIC        PSW
  -------         PROC          CLICK10MSBZ
  C:6CB0H         LINE#         4
  C:6CB0H         LINE#         5
  C:6CB0H         LINE#         6
  C:6CB9H         LINE#         8
  C:6CBCH         LINE#         10
  C:6CBFH         LINE#         11
  C:6CC1H         LINE#         12
  -------         ENDPROC       CLICK10MSBZ
  -------         PROC          BEEP200MSBZ
  C:6CC2H         LINE#         16
  C:6CC2H         LINE#         17
  C:6CC2H         LINE#         19
  C:6CCBH         LINE#         21
  C:6CCEH         LINE#         23
  C:6CD1H         LINE#         24
  C:6CD3H         LINE#         25
  -------         ENDPROC       BEEP200MSBZ
  -------         PROC          BTLINK3SBZ
  C:6CD4H         LINE#         27
  C:6CD4H         LINE#         28
  C:6CD4H         LINE#         29
  C:6CDDH         LINE#         30
  C:6CE0H         LINE#         31
  C:6CE3H         LINE#         32
  C:6CE5H         LINE#         33
  -------         ENDPROC       BTLINK3SBZ
  -------         PROC          _WARNINGBZ
  D:0006H         SYMBOL        DUTY
  C:6E2DH         LINE#         36
  C:6E2DH         LINE#         37
  C:6E2DH         LINE#         38
  -------         ENDPROC       _WARNINGBZ
  -------         PROC          LOWBATTERY50MSBZ
  C:6CE6H         LINE#         42
  C:6CE6H         LINE#         43
  C:6CE6H         LINE#         44
  C:6CEFH         LINE#         45
  C:6CF2H         LINE#         46
  C:6CF5H         LINE#         47
  C:6CF7H         LINE#         48
  -------         ENDPROC       LOWBATTERY50MSBZ
  -------         ENDMOD        BEEP

BL51 BANKED LINKER/LOCATER V6.22                                                      06/08/2016  14:58:03  PAGE 71


  -------         MODULE        STC15_CLK
  C:0000H         SYMBOL        _ICE_DUMMY_
  D:0080H         PUBLIC        P0
  D:0090H         PUBLIC        P1
  D:00A0H         PUBLIC        P2
  D:00ABH         PUBLIC        WKTCH
  D:00B0H         PUBLIC        P3
  D:00C0H         PUBLIC        P4
  D:00C8H         PUBLIC        P5
  D:00E8H         PUBLIC        P6
  D:00AAH         PUBLIC        WKTCL
  D:00F8H         PUBLIC        P7
  D:00A8H         PUBLIC        IE
  D:00B8H         PUBLIC        IP
  D:00D8H         PUBLIC        CCON
  D:0098H         PUBLIC        SCON
  D:0088H         PUBLIC        TCON
  C:6DE0H         PUBLIC        _WeakUpDownMode
  D:00D0H         PUBLIC        PSW
  -------         PROC          _WEAKUPDOWNMODE
  D:0006H         SYMBOL        time
  -------         DO            
  D:0005H         SYMBOL        a
  D:0007H         SYMBOL        b
  -------         ENDDO         
  C:6DE0H         LINE#         4
  C:6DE0H         LINE#         5
  C:6DE0H         LINE#         6
  C:6DE2H         LINE#         7
  C:6DE3H         LINE#         8
  C:6DE5H         LINE#         9
  C:6DE9H         LINE#         10
  C:6DEBH         LINE#         13
  -------         ENDPROC       _WEAKUPDOWNMODE
  -------         ENDMOD        STC15_CLK

  -------         MODULE        POWER
  C:0000H         SYMBOL        _ICE_DUMMY_
  D:0080H         PUBLIC        P0
  D:0090H         PUBLIC        P1
  D:00B4H         PUBLIC        P4M0
  D:00A0H         PUBLIC        P2
  D:00B3H         PUBLIC        P4M1
  D:00B0H         PUBLIC        P3
  D:00CCH         PUBLIC        P6M0
  D:00C0H         PUBLIC        P4
  D:00CBH         PUBLIC        P6M1
  D:00C8H         PUBLIC        P5
  D:00E8H         PUBLIC        P6
  D:00F8H         PUBLIC        P7
  C:5739H         PUBLIC        batteryScan
  D:00A8H         PUBLIC        IE
  B:00C0H.1       PUBLIC        death_ctron
  C:6A45H         PUBLIC        batteryInit
  B:00E8H.0       PUBLIC        PG
  D:00B8H         PUBLIC        IP
  D:00D8H         PUBLIC        CCON
BL51 BANKED LINKER/LOCATER V6.22                                                      06/08/2016  14:58:03  PAGE 72


  X:0623H         PUBLIC        getBatteryTimes
  C:69F0H         PUBLIC        checkCharging
  B:00E8H.1       PUBLIC        System_Power_Vcc_ON_OFF
  D:0098H         PUBLIC        SCON
  D:0088H         PUBLIC        TCON
  B:0080H.7       PUBLIC        P07
  B:00E8H.2       PUBLIC        VSEL
  C:513AH         PUBLIC        tempScan
  B:00E8H.3       PUBLIC        BYP
  C:6211H         PUBLIC        getBatteryPercent
  D:00D0H         PUBLIC        PSW
  -------         PROC          BATTERYINIT
  C:6A45H         LINE#         8
  C:6A45H         LINE#         9
  C:6A45H         LINE#         11
  C:6A48H         LINE#         12
  C:6A4BH         LINE#         14
  C:6A4EH         LINE#         15
  C:6A51H         LINE#         19
  C:6A53H         LINE#         20
  C:6A55H         LINE#         21
  C:6A57H         LINE#         23
  C:6A59H         LINE#         27
  C:6A5CH         LINE#         28
  C:6A5FH         LINE#         29
  C:6A61H         LINE#         30
  C:6A63H         LINE#         34
  C:6A66H         LINE#         35
  C:6A68H         LINE#         36
  -------         ENDPROC       BATTERYINIT
  -------         PROC          BATTERYSCAN
  -------         DO            
  X:05A2H         SYMBOL        batteryValue
  X:05A4H         SYMBOL        batteryValuetmp
  X:05A6H         SYMBOL        i
  X:05A7H         SYMBOL        realBatteryValue
  X:05ABH         SYMBOL        left
  -------         ENDDO         
  C:5739H         LINE#         44
  C:5739H         LINE#         45
  C:5739H         LINE#         46
  C:5740H         LINE#         47
  C:5744H         LINE#         48
  C:5746H         LINE#         49
  C:574EH         LINE#         50
  C:5755H         LINE#         80
  C:5755H         LINE#         81
  C:5762H         LINE#         82
  C:576FH         LINE#         83
  C:577EH         LINE#         84
  C:5781H         LINE#         85
  C:578DH         LINE#         88
  C:57B2H         LINE#         90
  C:5808H         LINE#         100
  C:5816H         LINE#         102
  -------         ENDPROC       BATTERYSCAN
  -------         PROC          GETBATTERYPERCENT
BL51 BANKED LINKER/LOCATER V6.22                                                      06/08/2016  14:58:03  PAGE 73


  -------         DO            
  X:05F2H         SYMBOL        batteryPercentage
  X:05F3H         SYMBOL        batteryValue
  -------         ENDDO         
  C:6211H         LINE#         105
  C:6211H         LINE#         106
  C:6211H         LINE#         108
  C:6216H         LINE#         109
  C:621FH         LINE#         112
  C:6237H         LINE#         114
  C:626DH         LINE#         123
  C:626EH         LINE#         124
  C:626EH         LINE#         126
  C:6270H         LINE#         127
  -------         ENDPROC       GETBATTERYPERCENT
  -------         PROC          TEMPSCAN
  -------         DO            
  X:0539H         SYMBOL        tempAdcValue
  D:0006H         SYMBOL        avgTempAdcValue
  X:054DH         SYMBOL        realTempValue
  X:0551H         SYMBOL        left
  X:0552H         SYMBOL        i
  X:0553H         SYMBOL        getVcc
  -------         ENDDO         
  C:513AH         LINE#         139
  C:513AH         LINE#         140
  C:513AH         LINE#         143
  C:5144H         LINE#         144
  C:5149H         LINE#         145
  C:514BH         LINE#         147
  C:5154H         LINE#         149
  C:515DH         LINE#         150
  C:5176H         LINE#         151
  C:5179H         LINE#         152
  C:5181H         LINE#         153
  C:51A8H         LINE#         155
  C:51E6H         LINE#         157
  C:5239H         LINE#         159
  C:5255H         LINE#         160
  C:5257H         LINE#         170
  C:5265H         LINE#         171
  -------         ENDPROC       TEMPSCAN
  -------         PROC          CHECKCHARGING
  C:69F0H         LINE#         179
  C:69F0H         LINE#         180
  C:69F0H         LINE#         183
  C:69F5H         LINE#         184
  C:69F5H         LINE#         185
  C:69FCH         LINE#         187
  C:6A05H         LINE#         188
  C:6A08H         LINE#         189
  C:6A08H         LINE#         191
  C:6A08H         LINE#         192
  C:6A0FH         LINE#         194
  C:6A18H         LINE#         195
  C:6A1AH         LINE#         196
  C:6A1AH         LINE#         197
BL51 BANKED LINKER/LOCATER V6.22                                                      06/08/2016  14:58:03  PAGE 74


  -------         ENDPROC       CHECKCHARGING
  -------         ENDMOD        POWER

  -------         MODULE        KEYSCAN
  C:0000H         SYMBOL        _ICE_DUMMY_
  D:0080H         PUBLIC        P0
  D:0090H         PUBLIC        P1
  D:00A0H         PUBLIC        P2
  D:00B0H         PUBLIC        P3
  D:00C0H         PUBLIC        P4
  D:00C8H         PUBLIC        P5
  D:00E8H         PUBLIC        P6
  D:00F8H         PUBLIC        P7
  D:00F5H         PUBLIC        PWMCR
  D:00A8H         PUBLIC        IE
  B:00E8H.0       PUBLIC        PG
  D:00B8H         PUBLIC        IP
  D:00D8H         PUBLIC        CCON
  C:404CH         PUBLIC        _pageScan
  B:00E8H.1       PUBLIC        System_Power_Vcc_ON_OFF
  D:0098H         PUBLIC        SCON
  D:0088H         PUBLIC        TCON
  B:00E8H.2       PUBLIC        VSEL
  C:5B13H         PUBLIC        keyScan
  B:00E8H.3       PUBLIC        BYP
  C:4CCAH         PUBLIC        keyScanTest
  X:0624H         PUBLIC        mode_flag_t
  D:00D0H         PUBLIC        PSW
  -------         PROC          KEYSCAN
  -------         DO            
  X:060AH         SYMBOL        keyValue
  X:060BH         SYMBOL        keyValue1
  X:060CH         SYMBOL        keyValue2
  -------         ENDDO         
  C:5B13H         LINE#         6
  C:5B13H         LINE#         7
  C:5B13H         LINE#         8
  C:5B18H         LINE#         9
  C:5B1AH         LINE#         10
  C:5B1CH         LINE#         11
  C:5B26H         LINE#         13
  C:5B2BH         LINE#         14
  C:5B2EH         LINE#         15
  C:5B2EH         LINE#         16
  C:5B2EH         LINE#         17
  C:5B31H         LINE#         18
  C:5B3BH         LINE#         19
  C:5B3EH         LINE#         20
  C:5B48H         LINE#         21
  C:5B58H         LINE#         23
  C:5B58H         LINE#         24
  C:5B58H         LINE#         25
  C:5B5BH         LINE#         26
  C:5B66H         LINE#         27
  C:5B68H         LINE#         29
  C:5B70H         LINE#         30
  C:5B72H         LINE#         31
BL51 BANKED LINKER/LOCATER V6.22                                                      06/08/2016  14:58:03  PAGE 75


  C:5B72H         LINE#         33
  C:5B7BH         LINE#         35
  C:5B7EH         LINE#         36
  C:5B81H         LINE#         37
  C:5B8AH         LINE#         39
  C:5B8DH         LINE#         40
  C:5B90H         LINE#         41
  C:5B99H         LINE#         43
  C:5B9CH         LINE#         44
  C:5B9FH         LINE#         45
  C:5BA8H         LINE#         47
  C:5BABH         LINE#         48
  C:5BAEH         LINE#         49
  C:5BB7H         LINE#         50
  C:5BBAH         LINE#         51
  C:5BBDH         LINE#         52
  C:5BBDH         LINE#         54
  C:5BBFH         LINE#         56
  -------         ENDPROC       KEYSCAN
  -------         PROC          KEYSCANTEST
  -------         DO            
  X:060DH         SYMBOL        keyValue
  X:060EH         SYMBOL        keyValue1
  X:060FH         SYMBOL        keyValue2
  -------         ENDDO         
  C:4CCAH         LINE#         59
  C:4CCAH         LINE#         60
  C:4CCAH         LINE#         61
  C:4CCFH         LINE#         62
  C:4CD1H         LINE#         63
  C:4CD3H         LINE#         64
  C:4CDDH         LINE#         65
  C:4CE2H         LINE#         66
  C:4CE2H         LINE#         67
  C:4CE5H         LINE#         68
  C:4CEEH         LINE#         69
  C:4CF3H         LINE#         70
  C:4CFBH         LINE#         72
  C:4D04H         LINE#         73
  C:4D0CH         LINE#         74
  C:4D0FH         LINE#         76
  C:4D12H         LINE#         77
  C:4D12H         LINE#         78
  C:4D12H         LINE#         79
  C:4D15H         LINE#         80
  C:4D1FH         LINE#         81
  C:4D22H         LINE#         82
  C:4D2CH         LINE#         84
  C:4D3CH         LINE#         86
  C:4D41H         LINE#         87
  C:4D4AH         LINE#         88
  C:4D4FH         LINE#         89
  C:4D57H         LINE#         91
  C:4D60H         LINE#         92
  C:4D68H         LINE#         94
  C:4D71H         LINE#         96
  C:4D74H         LINE#         97
BL51 BANKED LINKER/LOCATER V6.22                                                      06/08/2016  14:58:03  PAGE 76


  C:4D7DH         LINE#         98
  C:4D86H         LINE#         99
  C:4D8BH         LINE#         100
  C:4D93H         LINE#         102
  C:4D9CH         LINE#         103
  C:4DA4H         LINE#         105
  C:4DADH         LINE#         107
  C:4DB0H         LINE#         108
  C:4DB9H         LINE#         109
  C:4DC2H         LINE#         110
  C:4DC7H         LINE#         111
  C:4DCFH         LINE#         113
  C:4DD8H         LINE#         114
  C:4DE0H         LINE#         116
  C:4DE9H         LINE#         118
  C:4DECH         LINE#         119
  C:4DF5H         LINE#         120
  C:4DFEH         LINE#         121
  C:4E03H         LINE#         122
  C:4E0BH         LINE#         124
  C:4E14H         LINE#         125
  C:4E1CH         LINE#         127
  C:4E25H         LINE#         129
  C:4E28H         LINE#         130
  C:4E31H         LINE#         131
  C:4E3AH         LINE#         132
  C:4E3FH         LINE#         133
  C:4E47H         LINE#         135
  C:4E50H         LINE#         136
  C:4E58H         LINE#         137
  C:4E61H         LINE#         139
  C:4E64H         LINE#         140
  C:4E64H         LINE#         142
  C:4E66H         LINE#         143
  C:4E66H         LINE#         144
  -------         ENDPROC       KEYSCANTEST
  -------         PROC          _PAGESCAN
  D:0007H         SYMBOL        key
  -------         DO            
  X:0620H         SYMBOL        dealkey
  C:4054H         SYMBOL        START
  -------         ENDDO         
  C:404CH         LINE#         148
  C:404CH         LINE#         149
  C:404CH         LINE#         150
  C:4054H         LINE#         151
  C:4054H         LINE#         152
  C:4083H         LINE#         153
  C:4083H         LINE#         154
  C:4083H         LINE#         155
  C:40A2H         LINE#         156
  C:40A2H         LINE#         157
  C:40A2H         LINE#         158
  C:40A2H         LINE#         159
  C:40A2H         LINE#         160
  C:40A2H         LINE#         161
  C:40A2H         LINE#         162
BL51 BANKED LINKER/LOCATER V6.22                                                      06/08/2016  14:58:03  PAGE 77


  C:40A2H         LINE#         163
  C:40A4H         LINE#         164
  C:40A4H         LINE#         165
  C:40A7H         LINE#         166
  C:40B0H         LINE#         167
  C:40B6H         LINE#         168
  C:40B9H         LINE#         169
  C:40B9H         LINE#         170
  C:40B9H         LINE#         175
  C:40B9H         LINE#         176
  C:40D4H         LINE#         177
  C:40D4H         LINE#         178
  C:40D4H         LINE#         179
  C:40D4H         LINE#         180
  C:40D6H         LINE#         181
  C:40D6H         LINE#         182
  C:40D6H         LINE#         183
  C:40D6H         LINE#         184
  C:40D8H         LINE#         185
  C:40D8H         LINE#         186
  C:40D8H         LINE#         187
  C:40D8H         LINE#         188
  C:40DBH         LINE#         189
  C:40E4H         LINE#         190
  C:40EAH         LINE#         191
  C:40EDH         LINE#         192
  C:40EDH         LINE#         193
  C:40EDH         LINE#         195
  C:40EDH         LINE#         196
  C:4108H         LINE#         197
  C:4108H         LINE#         198
  C:410DH         LINE#         199
  C:410DH         LINE#         200
  C:4110H         LINE#         201
  C:4110H         LINE#         202
  C:4115H         LINE#         203
  C:4115H         LINE#         204
  C:4118H         LINE#         205
  C:4118H         LINE#         206
  C:4118H         LINE#         207
  C:4118H         LINE#         208
  C:411BH         LINE#         209
  C:4124H         LINE#         210
  C:412AH         LINE#         211
  C:412DH         LINE#         212
  C:412DH         LINE#         213
  C:412DH         LINE#         215
  C:412DH         LINE#         216
  C:4145H         LINE#         217
  C:4145H         LINE#         218
  C:414AH         LINE#         219
  C:414AH         LINE#         220
  C:414DH         LINE#         221
  C:414DH         LINE#         222
  C:4152H         LINE#         223
  C:4152H         LINE#         224
  C:4155H         LINE#         225
BL51 BANKED LINKER/LOCATER V6.22                                                      06/08/2016  14:58:03  PAGE 78


  C:4155H         LINE#         226
  C:415AH         LINE#         227
  C:415AH         LINE#         228
  C:415DH         LINE#         229
  C:415DH         LINE#         230
  C:4160H         LINE#         231
  C:4169H         LINE#         232
  C:416FH         LINE#         233
  C:4172H         LINE#         234
  C:4172H         LINE#         235
  C:4172H         LINE#         240
  C:4172H         LINE#         241
  C:418AH         LINE#         242
  C:418AH         LINE#         243
  C:418FH         LINE#         244
  C:418FH         LINE#         245
  C:4192H         LINE#         246
  C:4192H         LINE#         247
  C:4197H         LINE#         248
  C:4197H         LINE#         249
  C:419AH         LINE#         250
  C:419AH         LINE#         251
  C:419FH         LINE#         252
  C:419FH         LINE#         253
  C:41A2H         LINE#         254
  C:41A2H         LINE#         255
  C:41A5H         LINE#         256
  C:41AEH         LINE#         257
  C:41B4H         LINE#         258
  C:41B7H         LINE#         259
  C:41B7H         LINE#         260
  C:41B7H         LINE#         262
  C:41B7H         LINE#         263
  C:41CFH         LINE#         264
  C:41CFH         LINE#         265
  C:41D4H         LINE#         266
  C:41D4H         LINE#         267
  C:41D7H         LINE#         268
  C:41D7H         LINE#         269
  C:41DCH         LINE#         270
  C:41DCH         LINE#         271
  C:41DFH         LINE#         272
  C:41DFH         LINE#         273
  C:41E4H         LINE#         274
  C:41E4H         LINE#         275
  C:41E7H         LINE#         277
  C:41E7H         LINE#         278
  C:41EAH         LINE#         279
  C:41F3H         LINE#         280
  C:41F9H         LINE#         281
  C:41FCH         LINE#         282
  C:41FCH         LINE#         283
  C:41FCH         LINE#         285
  C:41FCH         LINE#         286
  C:4214H         LINE#         287
  C:4214H         LINE#         288
  C:4219H         LINE#         289
BL51 BANKED LINKER/LOCATER V6.22                                                      06/08/2016  14:58:03  PAGE 79


  C:4219H         LINE#         290
  C:421BH         LINE#         291
  C:421BH         LINE#         292
  C:4220H         LINE#         293
  C:4220H         LINE#         294
  C:4222H         LINE#         295
  C:4222H         LINE#         296
  C:4227H         LINE#         297
  C:4227H         LINE#         298
  C:4229H         LINE#         300
  C:4229H         LINE#         301
  C:422CH         LINE#         302
  C:4235H         LINE#         303
  C:423BH         LINE#         304
  C:423EH         LINE#         305
  C:423EH         LINE#         306
  C:423EH         LINE#         308
  C:423EH         LINE#         309
  C:4256H         LINE#         310
  C:4256H         LINE#         311
  C:425BH         LINE#         312
  C:425BH         LINE#         313
  C:425DH         LINE#         314
  C:425DH         LINE#         315
  C:4262H         LINE#         316
  C:4262H         LINE#         317
  C:4264H         LINE#         318
  C:4264H         LINE#         319
  C:426AH         LINE#         320
  C:4271H         LINE#         321
  C:4274H         LINE#         323
  C:4274H         LINE#         324
  C:4277H         LINE#         325
  C:4280H         LINE#         326
  C:4286H         LINE#         327
  C:4289H         LINE#         328
  C:4289H         LINE#         329
  C:4289H         LINE#         333
  C:4289H         LINE#         335
  C:42A4H         LINE#         336
  C:42A4H         LINE#         337
  C:42ADH         LINE#         338
  C:42AFH         LINE#         339
  C:42B5H         LINE#         340
  C:42B8H         LINE#         341
  C:42BBH         LINE#         342
  C:42BEH         LINE#         343
  C:42C7H         LINE#         344
  C:42CDH         LINE#         345
  C:42D0H         LINE#         346
  C:42D0H         LINE#         347
  C:42D3H         LINE#         348
  C:42DCH         LINE#         349
  C:42E2H         LINE#         350
  C:42E2H         LINE#         351
  C:42E2H         LINE#         352
  C:42E5H         LINE#         353
BL51 BANKED LINKER/LOCATER V6.22                                                      06/08/2016  14:58:03  PAGE 80


  C:42E5H         LINE#         354
  C:42E8H         LINE#         355
  C:42F1H         LINE#         356
  C:42FAH         LINE#         357
  C:42FCH         LINE#         358
  C:42FDH         LINE#         359
  C:42FDH         LINE#         360
  C:4300H         LINE#         361
  C:4309H         LINE#         362
  C:4312H         LINE#         363
  C:4314H         LINE#         364
  C:4315H         LINE#         365
  C:4315H         LINE#         366
  C:4318H         LINE#         367
  C:4321H         LINE#         368
  C:4327H         LINE#         369
  C:432AH         LINE#         370
  C:432AH         LINE#         371
  C:432AH         LINE#         377
  C:432AH         LINE#         378
  C:432DH         LINE#         379
  C:4336H         LINE#         380
  C:433CH         LINE#         381
  C:433FH         LINE#         385
  C:433FH         LINE#         386
  C:435AH         LINE#         387
  C:435AH         LINE#         388
  C:435DH         LINE#         389
  C:4366H         LINE#         390
  C:436CH         LINE#         391
  C:436FH         LINE#         392
  C:436FH         LINE#         393
  C:4372H         LINE#         394
  C:437BH         LINE#         395
  C:4381H         LINE#         396
  C:4383H         LINE#         397
  C:4383H         LINE#         398
  C:4383H         LINE#         399
  C:4383H         LINE#         400
  C:4386H         LINE#         401
  C:438FH         LINE#         402
  C:4395H         LINE#         403
  C:4397H         LINE#         404
  C:4397H         LINE#         405
  C:4397H         LINE#         409
  C:4397H         LINE#         410
  C:43AFH         LINE#         411
  C:43AFH         LINE#         412
  C:43B2H         LINE#         413
  C:43BBH         LINE#         414
  C:43C1H         LINE#         415
  C:43C3H         LINE#         416
  C:43C3H         LINE#         417
  C:43C6H         LINE#         418
  C:43CFH         LINE#         419
  C:43D5H         LINE#         420
  C:43D7H         LINE#         421
BL51 BANKED LINKER/LOCATER V6.22                                                      06/08/2016  14:58:03  PAGE 81


  C:43D7H         LINE#         422
  C:43D7H         LINE#         423
  C:43D7H         LINE#         424
  C:43DAH         LINE#         425
  C:43E3H         LINE#         426
  C:43E9H         LINE#         427
  C:43EBH         LINE#         428
  C:43EBH         LINE#         429
  C:43EBH         LINE#         433
  C:43EBH         LINE#         434
  C:43EEH         LINE#         435
  C:43F7H         LINE#         436
  C:4400H         LINE#         437
  C:4400H         LINE#         440
  C:4400H         LINE#         441
  -------         ENDPROC       _PAGESCAN
  -------         ENDMOD        KEYSCAN

  -------         MODULE        OLED_DATA
  C:0000H         SYMBOL        _ICE_DUMMY_
  D:0080H         PUBLIC        P0
  D:0090H         PUBLIC        P1
  D:00A0H         PUBLIC        P2
  D:00B0H         PUBLIC        P3
  D:00C0H         PUBLIC        P4
  C:388DH         PUBLIC        stateBattery
  D:00C8H         PUBLIC        P5
  D:00E8H         PUBLIC        P6
  D:00F8H         PUBLIC        P7
  C:3051H         PUBLIC        Fonts
  D:00A8H         PUBLIC        IE
  C:6CF8H         PUBLIC        OledFlushBaseState
  C:6A69H         PUBLIC        _OledBtConnectState
  C:3671H         PUBLIC        HM
  D:00B8H         PUBLIC        IP
  C:3851H         PUBLIC        stateBase
  D:00D8H         PUBLIC        CCON
  C:3881H         PUBLIC        stateBtConnect
  C:3231H         PUBLIC        Num
  C:6AB1H         PUBLIC        _OledChargingState
  D:0098H         PUBLIC        SCON
  D:0088H         PUBLIC        TCON
  C:38F9H         PUBLIC        stateCharging
  C:3331H         PUBLIC        LETTER
  C:6A8DH         PUBLIC        _OledBatteryState
  C:6675H         PUBLIC        _OledBatteryPower
  D:00D0H         PUBLIC        PSW
  -------         PROC          OLEDFLUSHBASESTATE
  C:6CF8H         LINE#         229
  C:6CF8H         LINE#         230
  C:6CF8H         LINE#         231
  -------         ENDPROC       OLEDFLUSHBASESTATE
  -------         PROC          _OLEDBTCONNECTSTATE
  D:0007H         SYMBOL        state
  C:6A69H         LINE#         244
  C:6A69H         LINE#         245
  C:6A69H         LINE#         246
BL51 BANKED LINKER/LOCATER V6.22                                                      06/08/2016  14:58:03  PAGE 82


  C:6A6FH         LINE#         247
  C:6A71H         LINE#         248
  -------         ENDPROC       _OLEDBTCONNECTSTATE
  -------         PROC          _OLEDBATTERYSTATE
  D:0007H         SYMBOL        batteryState
  C:6A8DH         LINE#         273
  C:6A8DH         LINE#         274
  C:6A8DH         LINE#         275
  C:6A93H         LINE#         276
  C:6A95H         LINE#         277
  -------         ENDPROC       _OLEDBATTERYSTATE
  -------         PROC          _OLEDBATTERYPOWER
  D:0007H         SYMBOL        batteryPower
  -------         DO            
  D:0006H         SYMBOL        ten
  X:0563H         SYMBOL        bits
  -------         ENDDO         
  C:6675H         LINE#         284
  C:6675H         LINE#         285
  C:6675H         LINE#         286
  C:667BH         LINE#         287
  C:6686H         LINE#         289
  C:668CH         LINE#         290
  C:668FH         LINE#         291
  C:669AH         LINE#         292
  C:66A8H         LINE#         293
  C:66B1H         LINE#         294
  C:66B3H         LINE#         295
  -------         ENDPROC       _OLEDBATTERYPOWER
  -------         PROC          _OLEDCHARGINGSTATE
  D:0007H         SYMBOL        state
  C:6AB1H         LINE#         309
  C:6AB1H         LINE#         310
  C:6AB1H         LINE#         311
  C:6AB7H         LINE#         312
  C:6AB9H         LINE#         313
  -------         ENDPROC       _OLEDCHARGINGSTATE
  -------         ENDMOD        OLED_DATA

  -------         MODULE        ?C?FPADD
  C:390CH         PUBLIC        ?C?FPADD
  C:3908H         PUBLIC        ?C?FPSUB
  -------         ENDMOD        ?C?FPADD

  -------         MODULE        ?C?FPMUL
  C:39FDH         PUBLIC        ?C?FPMUL
  -------         ENDMOD        ?C?FPMUL

  -------         MODULE        ?C?FPDIV
  C:3B06H         PUBLIC        ?C?FPDIV
  -------         ENDMOD        ?C?FPDIV

  -------         MODULE        ?C?FPCMP
  C:3BA5H         PUBLIC        ?C?FPCMP
  C:3BA3H         PUBLIC        ?C?FPCMP3
  -------         ENDMOD        ?C?FPCMP

BL51 BANKED LINKER/LOCATER V6.22                                                      06/08/2016  14:58:03  PAGE 83


  -------         MODULE        ?C?FCAST
  C:3C26H         PUBLIC        ?C?FCASTC
  C:3C21H         PUBLIC        ?C?FCASTI
  C:3C1CH         PUBLIC        ?C?FCASTL
  -------         ENDMOD        ?C?FCAST

  -------         MODULE        ?C?CASTF
  C:3C5AH         PUBLIC        ?C?CASTF
  -------         ENDMOD        ?C?CASTF

  -------         MODULE        ?C?COPY
  C:3DABH         PUBLIC        ?C?COPY
  -------         ENDMOD        ?C?COPY

  -------         MODULE        ?C?CLDPTR
  C:3DD1H         PUBLIC        ?C?CLDPTR
  -------         ENDMOD        ?C?CLDPTR

  -------         MODULE        ?C?CLDOPTR
  C:3DEAH         PUBLIC        ?C?CLDOPTR
  -------         ENDMOD        ?C?CLDOPTR

  -------         MODULE        ?C?IMUL
  C:3E17H         PUBLIC        ?C?IMUL
  -------         ENDMOD        ?C?IMUL

  -------         MODULE        ?C?UIDIV
  C:3E29H         PUBLIC        ?C?UIDIV
  -------         ENDMOD        ?C?UIDIV

  -------         MODULE        ?C?IILDX
  C:3E7EH         PUBLIC        ?C?IILDX
  -------         ENDMOD        ?C?IILDX

  -------         MODULE        ?C?ILDIX
  C:3E94H         PUBLIC        ?C?ILDIX
  -------         ENDMOD        ?C?ILDIX

  -------         MODULE        ?C?LMUL
  C:3EAAH         PUBLIC        ?C?LMUL
  -------         ENDMOD        ?C?LMUL

  -------         MODULE        ?C?SLDIV
  C:65EEH         PUBLIC        ?C?SLDIV
  -------         ENDMOD        ?C?SLDIV

  -------         MODULE        ?C?LNEG
  C:3EF9H         PUBLIC        ?C?LNEG
  -------         ENDMOD        ?C?LNEG

  -------         MODULE        ?C?SLSHR
  C:3F07H         PUBLIC        ?C?SLSHR
  -------         ENDMOD        ?C?SLSHR

  -------         MODULE        ?C?LSTXDATA
  C:3F1BH         PUBLIC        ?C?LSTXDATA
  -------         ENDMOD        ?C?LSTXDATA
BL51 BANKED LINKER/LOCATER V6.22                                                      06/08/2016  14:58:03  PAGE 84



  -------         MODULE        ?C?LSTKXDATA
  C:3F27H         PUBLIC        ?C?LSTKXDATA
  -------         ENDMOD        ?C?LSTKXDATA

  -------         MODULE        ?C?CCASE
  C:3F58H         PUBLIC        ?C?CCASE
  -------         ENDMOD        ?C?CCASE

  -------         MODULE        ?C?ULDIV
  C:3FBAH         PUBLIC        ?C?ULDIV
  -------         ENDMOD        ?C?ULDIV

*** WARNING L16: UNCALLED SEGMENT, IGNORED FOR OVERLAY PROCESS
    SEGMENT: ?PR?_BLE_SET_BAUD?BLE

*** WARNING L16: UNCALLED SEGMENT, IGNORED FOR OVERLAY PROCESS
    SEGMENT: ?PR?BLE_INQUIRE_BAUD?BLE

*** WARNING L16: UNCALLED SEGMENT, IGNORED FOR OVERLAY PROCESS
    SEGMENT: ?PR?DELAY999MS?DELAY

*** WARNING L16: UNCALLED SEGMENT, IGNORED FOR OVERLAY PROCESS
    SEGMENT: ?PR?DELAY150MS?DELAY

*** WARNING L16: UNCALLED SEGMENT, IGNORED FOR OVERLAY PROCESS
    SEGMENT: ?PR?DELAY500MS?DELAY

*** WARNING L16: UNCALLED SEGMENT, IGNORED FOR OVERLAY PROCESS
    SEGMENT: ?PR?_READ_MAC_REGISTER?INDY

*** WARNING L16: UNCALLED SEGMENT, IGNORED FOR OVERLAY PROCESS
    SEGMENT: ?PR?UART2_SENDMES?INDY

*** WARNING L16: UNCALLED SEGMENT, IGNORED FOR OVERLAY PROCESS
    SEGMENT: ?PR?CLEAR_UART2_MES?INDY

*** WARNING L16: UNCALLED SEGMENT, IGNORED FOR OVERLAY PROCESS
    SEGMENT: ?PR?INDY_READ_SENSORCODE?INDY

*** WARNING L16: UNCALLED SEGMENT, IGNORED FOR OVERLAY PROCESS
    SEGMENT: ?PR?INDY_READRSSI?INDY

*** WARNING L16: UNCALLED SEGMENT, IGNORED FOR OVERLAY PROCESS
    SEGMENT: ?PR?INDY_READTEMP?INDY

*** WARNING L16: UNCALLED SEGMENT, IGNORED FOR OVERLAY PROCESS
    SEGMENT: ?PR?UART2_RECV_PROC?INDY

*** WARNING L16: UNCALLED SEGMENT, IGNORED FOR OVERLAY PROCESS
    SEGMENT: ?PR?_INDEX_SEND?INDY

*** WARNING L16: UNCALLED SEGMENT, IGNORED FOR OVERLAY PROCESS
    SEGMENT: ?PR?_INDEX_R_CHECK?INDY

*** WARNING L16: UNCALLED SEGMENT, IGNORED FOR OVERLAY PROCESS
    SEGMENT: ?PR?OLEDPOWERDOWN?STC15_OLED
BL51 BANKED LINKER/LOCATER V6.22                                                      06/08/2016  14:58:03  PAGE 85



*** WARNING L16: UNCALLED SEGMENT, IGNORED FOR OVERLAY PROCESS
    SEGMENT: ?PR?OLEDENTERINGSLEEPMODE?STC15_OLED

*** WARNING L16: UNCALLED SEGMENT, IGNORED FOR OVERLAY PROCESS
    SEGMENT: ?PR?OLEDEXITINGSLEEPMODE?STC15_OLED

*** WARNING L16: UNCALLED SEGMENT, IGNORED FOR OVERLAY PROCESS
    SEGMENT: ?PR?_OLEDWRITEBUFBYHEX?STC15_OLED

*** WARNING L16: UNCALLED SEGMENT, IGNORED FOR OVERLAY PROCESS
    SEGMENT: ?PR?_OLEDWRITEBUFBYHEX57?STC15_OLED

*** WARNING L16: UNCALLED SEGMENT, IGNORED FOR OVERLAY PROCESS
    SEGMENT: ?PR?_CLEARPAGECOL?STC15_OLED

*** WARNING L16: UNCALLED SEGMENT, IGNORED FOR OVERLAY PROCESS
    SEGMENT: ?PR?_ADCINTINIT?STC15_ADC

*** WARNING L16: UNCALLED SEGMENT, IGNORED FOR OVERLAY PROCESS
    SEGMENT: ?PR?_DTOA256?STC15_ADC

*** WARNING L16: UNCALLED SEGMENT, IGNORED FOR OVERLAY PROCESS
    SEGMENT: ?PR?_DTOA1024?STC15_ADC

*** WARNING L16: UNCALLED SEGMENT, IGNORED FOR OVERLAY PROCESS
    SEGMENT: ?PR?_SENDSTRING3?STC15_UART

*** WARNING L16: UNCALLED SEGMENT, IGNORED FOR OVERLAY PROCESS
    SEGMENT: ?PR?_SEQUENTIAL_WRITE_FLASH_IN_ONE_SECTOR?STC15_FLASH

*** WARNING L16: UNCALLED SEGMENT, IGNORED FOR OVERLAY PROCESS
    SEGMENT: ?PR?_WRITE_FLASH_WITH_PROTECT_IN_ONE_SECTOR?STC15_FLASH

*** WARNING L16: UNCALLED SEGMENT, IGNORED FOR OVERLAY PROCESS
    SEGMENT: ?PR?GETPWM?STC15_PWM

*** WARNING L16: UNCALLED SEGMENT, IGNORED FOR OVERLAY PROCESS
    SEGMENT: ?PR?_GETPWM4?STC15_PWM

*** WARNING L16: UNCALLED SEGMENT, IGNORED FOR OVERLAY PROCESS
    SEGMENT: ?PR?_GETPWM5?STC15_PWM

*** WARNING L16: UNCALLED SEGMENT, IGNORED FOR OVERLAY PROCESS
    SEGMENT: ?PR?_GETPWM2?STC15_PWM

*** WARNING L16: UNCALLED SEGMENT, IGNORED FOR OVERLAY PROCESS
    SEGMENT: ?PR?_OLEDBRTADJUST?STC15_PWM

*** WARNING L16: UNCALLED SEGMENT, IGNORED FOR OVERLAY PROCESS
    SEGMENT: ?PR?_TIMER0INIT?STC15_TIME

*** WARNING L16: UNCALLED SEGMENT, IGNORED FOR OVERLAY PROCESS
    SEGMENT: ?PR?INITSPI?STC15_SPI

*** WARNING L16: UNCALLED SEGMENT, IGNORED FOR OVERLAY PROCESS
    SEGMENT: ?PR?T0INTINIT?STC15_INT
BL51 BANKED LINKER/LOCATER V6.22                                                      06/08/2016  14:58:03  PAGE 86



*** WARNING L16: UNCALLED SEGMENT, IGNORED FOR OVERLAY PROCESS
    SEGMENT: ?PR?FRESHSTATELINE?STC15_INT

*** WARNING L16: UNCALLED SEGMENT, IGNORED FOR OVERLAY PROCESS
    SEGMENT: ?PR?INT0INIT?STC15_INT

*** WARNING L16: UNCALLED SEGMENT, IGNORED FOR OVERLAY PROCESS
    SEGMENT: ?PR?INT1INIT?STC15_INT

*** WARNING L16: UNCALLED SEGMENT, IGNORED FOR OVERLAY PROCESS
    SEGMENT: ?PR?INT2INIT?STC15_INT

*** WARNING L16: UNCALLED SEGMENT, IGNORED FOR OVERLAY PROCESS
    SEGMENT: ?PR?INT3INIT?STC15_INT

*** WARNING L16: UNCALLED SEGMENT, IGNORED FOR OVERLAY PROCESS
    SEGMENT: ?PR?INT4INIT?STC15_INT

*** WARNING L16: UNCALLED SEGMENT, IGNORED FOR OVERLAY PROCESS
    SEGMENT: ?PR?LVDINTINIT?STC15_INT

*** WARNING L16: UNCALLED SEGMENT, IGNORED FOR OVERLAY PROCESS
    SEGMENT: ?PR?BTLINK3SBZ?BEEP

*** WARNING L16: UNCALLED SEGMENT, IGNORED FOR OVERLAY PROCESS
    SEGMENT: ?PR?_WARNINGBZ?BEEP

*** WARNING L16: UNCALLED SEGMENT, IGNORED FOR OVERLAY PROCESS
    SEGMENT: ?PR?LOWBATTERY50MSBZ?BEEP

*** WARNING L16: UNCALLED SEGMENT, IGNORED FOR OVERLAY PROCESS
    SEGMENT: ?PR?_WEAKUPDOWNMODE?STC15_CLK

*** WARNING L16: UNCALLED SEGMENT, IGNORED FOR OVERLAY PROCESS
    SEGMENT: ?PR?CHECKCHARGING?POWER

*** WARNING L16: UNCALLED SEGMENT, IGNORED FOR OVERLAY PROCESS
    SEGMENT: ?PR?KEYSCAN?KEYSCAN

*** WARNING L16: UNCALLED SEGMENT, IGNORED FOR OVERLAY PROCESS
    SEGMENT: ?PR?KEYSCANTEST?KEYSCAN

*** WARNING L16: UNCALLED SEGMENT, IGNORED FOR OVERLAY PROCESS
    SEGMENT: ?PR?_PAGESCAN?KEYSCAN

Program Size: data=50.2 xdata=1573 code=28209
LINK/LOCATE RUN COMPLETE.  49 WARNING(S),  0 ERROR(S)
